; Listing generated by Microsoft (R) Optimizing Compiler Version 19.00.24215.1 

include listing.inc

INCLUDELIB MSVCRTD
INCLUDELIB OLDNAMES

CONST	SEGMENT
$SG120042 DB	'E:\Qt\5.12.3\msvc2015_64\include\QtCore/qmetatype.h', 00H
	ORG $+12
$SG120043 DB	'qRegisterNormalizedMetaType was called with a not normal'
	DB	'ized type name, please call qRegisterMetaType instead.', 00H
	ORG $+1
$SG120044 DB	'qRegisterNormalizedMetaType', 00H
	ORG $+4
$SG121279 DB	'E:\Qt\5.12.3\msvc2015_64\include\QtCore/qmetatype.h', 00H
	ORG $+12
$SG121280 DB	'qRegisterNormalizedMetaType was called with a not normal'
	DB	'ized type name, please call qRegisterMetaType instead.', 00H
	ORG $+1
$SG121281 DB	'qRegisterNormalizedMetaType', 00H
	ORG $+4
?qt_meta_stringdata_DataSource@@3Uqt_meta_stringdata_DataSource_t@@B DD 0ffffffffH ; qt_meta_stringdata_DataSource
	DD	0aH
	DD	00H
	ORG $+4
	DQ	0000000000000060H
	DD	0ffffffffH
	DD	011H
	DD	00H
	ORG $+4
	DQ	0000000000000053H
	DD	0ffffffffH
	DD	00H
	DD	00H
	ORG $+4
	DQ	000000000000004dH
	DD	0ffffffffH
	DD	012H
	DD	00H
	ORG $+4
	DQ	0000000000000036H
	DB	'DataSource', 00H, 'sendDataSrcChosen', 00H, 00H, 'button'
	DB	'ApplyClicked', 00H
	ORG $+7
$SG119398 DB	'E:\Qt\5.12.3\msvc2015_64\include\QtCore/qmetatype.h', 00H
	ORG $+4
$SG119399 DB	'qRegisterNormalizedMetaType was called with a not normal'
	DB	'ized type name, please call qRegisterMetaType instead.', 00H
	ORG $+1
$SG119400 DB	'qRegisterNormalizedMetaType', 00H
	ORG $+4
?qt_meta_data_DataSource@@3QBIB DD 08H			; qt_meta_data_DataSource
	DD	00H
	DD	00H
	DD	00H
	DD	02H
	DD	0eH
	DD	00H
	DD	00H
	DD	00H
	DD	00H
	DD	00H
	DD	00H
	DD	00H
	DD	01H
	DD	01H
	DD	01H
	DD	018H
	DD	02H
	DD	06H
	DD	03H
	DD	00H
	DD	01bH
	DD	02H
	DD	08H
	DD	02bH
	DD	02H
	DD	02H
	DD	02bH
	DD	00H
	ORG $+4
$SG119720 DB	'E:\Qt\5.12.3\msvc2015_64\include\QtCore/qmetatype.h', 00H
	ORG $+4
$SG119721 DB	'qRegisterNormalizedMetaType was called with a not normal'
	DB	'ized type name, please call qRegisterMetaType instead.', 00H
	ORG $+1
$SG119722 DB	'qRegisterNormalizedMetaType', 00H
CONST	ENDS
PUBLIC	?__empty_global_delete@@YAXPEAX@Z		; __empty_global_delete
PUBLIC	?__empty_global_delete@@YAXPEAX_K@Z		; __empty_global_delete
PUBLIC	??C?$QScopedPointer@VQObjectData@@U?$QScopedPointerDeleter@VQObjectData@@@@@@QEBAPEAVQObjectData@@XZ ; QScopedPointer<QObjectData,QScopedPointerDeleter<QObjectData> >::operator->
PUBLIC	?metaObject@DataSource@@UEBAPEBUQMetaObject@@XZ	; DataSource::metaObject
PUBLIC	?qt_metacast@DataSource@@UEAAPEAXPEBD@Z		; DataSource::qt_metacast
PUBLIC	?qt_metacall@DataSource@@UEAAHW4Call@QMetaObject@@HPEAPEAX@Z ; DataSource::qt_metacall
PUBLIC	?qt_static_metacall@DataSource@@CAXPEAVQObject@@W4Call@QMetaObject@@HPEAPEAX@Z ; DataSource::qt_static_metacall
PUBLIC	?sendDataSrcChosen@DataSource@@QEAAXH@Z		; DataSource::sendDataSrcChosen
PUBLIC	?staticMetaObject@DataSource@@2UQMetaObject@@B	; DataSource::staticMetaObject
EXTRN	strcmp:PROC
EXTRN	__imp_?activate@QMetaObject@@SAXPEAVQObject@@PEBU1@HPEAPEAX@Z:PROC
EXTRN	__imp_?dynamicMetaObject@QObjectData@@QEBAPEAUQMetaObject@@XZ:PROC
EXTRN	__imp_?qt_metacast@QWidget@@UEAAPEAXPEBD@Z:PROC
EXTRN	__imp_?qt_metacall@QWidget@@UEAAHW4Call@QMetaObject@@HPEAPEAX@Z:PROC
EXTRN	?buttonApplyClicked@DataSource@@AEAAXXZ:PROC	; DataSource::buttonApplyClicked
EXTRN	__imp_?staticMetaObject@QWidget@@2UQMetaObject@@B:BYTE
_BSS	SEGMENT
?staticMetaObject@DataSource@@2UQMetaObject@@B DB 030H DUP (?) ; DataSource::staticMetaObject
_BSS	ENDS
pdata	SEGMENT
$pdata$?metaObject@DataSource@@UEBAPEBUQMetaObject@@XZ DD imagerel $LN5
	DD	imagerel $LN5+88
	DD	imagerel $unwind$?metaObject@DataSource@@UEBAPEBUQMetaObject@@XZ
$pdata$?qt_metacast@DataSource@@UEAAPEAXPEBD@Z DD imagerel $LN5
	DD	imagerel $LN5+75
	DD	imagerel $unwind$?qt_metacast@DataSource@@UEAAPEAXPEBD@Z
$pdata$?qt_metacall@DataSource@@UEAAHW4Call@QMetaObject@@HPEAPEAX@Z DD imagerel $LN9
	DD	imagerel $LN9+174
	DD	imagerel $unwind$?qt_metacall@DataSource@@UEAAHW4Call@QMetaObject@@HPEAPEAX@Z
$pdata$?qt_static_metacall@DataSource@@CAXPEAVQObject@@W4Call@QMetaObject@@HPEAPEAX@Z DD imagerel $LN15
	DD	imagerel $LN15+285
	DD	imagerel $unwind$?qt_static_metacall@DataSource@@CAXPEAVQObject@@W4Call@QMetaObject@@HPEAPEAX@Z
$pdata$?sendDataSrcChosen@DataSource@@QEAAXH@Z DD imagerel $LN3
	DD	imagerel $LN3+63
	DD	imagerel $unwind$?sendDataSrcChosen@DataSource@@QEAAXH@Z
pdata	ENDS
CRT$XCU	SEGMENT
??staticMetaObject$initializer$@DataSource@@2P6AXXZEA@@3P6AXXZEA DQ FLAT:??__E?staticMetaObject@DataSource@@2UQMetaObject@@B@@YAXXZ ; ??staticMetaObject$initializer$@DataSource@@2P6AXXZEA@@3P6AXXZEA
CRT$XCU	ENDS
xdata	SEGMENT
$unwind$?metaObject@DataSource@@UEBAPEBUQMetaObject@@XZ DD 010901H
	DD	06209H
$unwind$?qt_metacast@DataSource@@UEAAPEAXPEBD@Z DD 010e01H
	DD	0420eH
$unwind$?qt_metacall@DataSource@@UEAAHW4Call@QMetaObject@@HPEAPEAX@Z DD 011701H
	DD	04217H
$unwind$?qt_static_metacall@DataSource@@CAXPEAVQObject@@W4Call@QMetaObject@@HPEAPEAX@Z DD 011701H
	DD	0a217H
$unwind$?sendDataSrcChosen@DataSource@@QEAAXH@Z DD 010d01H
	DD	0620dH
xdata	ENDS
; Function compile flags: /Odtp
;	COMDAT ??__E?staticMetaObject@DataSource@@2UQMetaObject@@B@@YAXXZ
text$di	SEGMENT
??__E?staticMetaObject@DataSource@@2UQMetaObject@@B@@YAXXZ PROC ; `dynamic initializer for 'DataSource::staticMetaObject'', COMDAT
; File c:\users\lx\desktop\moldmachine\moldmachine\moldmachine\x64\debug\moc\moc_datasource.cpp
; Line 96
	mov	rax, QWORD PTR __imp_?staticMetaObject@QWidget@@2UQMetaObject@@B
	mov	QWORD PTR ?staticMetaObject@DataSource@@2UQMetaObject@@B, rax
; Line 97
	lea	rax, OFFSET FLAT:?qt_meta_stringdata_DataSource@@3Uqt_meta_stringdata_DataSource_t@@B
	mov	QWORD PTR ?staticMetaObject@DataSource@@2UQMetaObject@@B+8, rax
; Line 98
	lea	rax, OFFSET FLAT:?qt_meta_data_DataSource@@3QBIB
	mov	QWORD PTR ?staticMetaObject@DataSource@@2UQMetaObject@@B+16, rax
; Line 99
	lea	rax, OFFSET FLAT:?qt_static_metacall@DataSource@@CAXPEAVQObject@@W4Call@QMetaObject@@HPEAPEAX@Z ; DataSource::qt_static_metacall
	mov	QWORD PTR ?staticMetaObject@DataSource@@2UQMetaObject@@B+24, rax
; Line 100
	mov	QWORD PTR ?staticMetaObject@DataSource@@2UQMetaObject@@B+32, 0
; Line 101
	mov	QWORD PTR ?staticMetaObject@DataSource@@2UQMetaObject@@B+40, 0
	ret	0
??__E?staticMetaObject@DataSource@@2UQMetaObject@@B@@YAXXZ ENDP ; `dynamic initializer for 'DataSource::staticMetaObject''
text$di	ENDS
; Function compile flags: /Odtp
_TEXT	SEGMENT
_a$ = 32
this$ = 64
_t1$ = 72
?sendDataSrcChosen@DataSource@@QEAAXH@Z PROC		; DataSource::sendDataSrcChosen
; File c:\users\lx\desktop\moldmachine\moldmachine\moldmachine\x64\debug\moc\moc_datasource.cpp
; Line 137
$LN3:
	mov	DWORD PTR [rsp+16], edx
	mov	QWORD PTR [rsp+8], rcx
	sub	rsp, 56					; 00000038H
; Line 138
	mov	QWORD PTR _a$[rsp], 0
	lea	rax, QWORD PTR _t1$[rsp]
	mov	QWORD PTR _a$[rsp+8], rax
; Line 139
	lea	r9, QWORD PTR _a$[rsp]
	xor	r8d, r8d
	lea	rdx, OFFSET FLAT:?staticMetaObject@DataSource@@2UQMetaObject@@B ; DataSource::staticMetaObject
	mov	rcx, QWORD PTR this$[rsp]
	call	QWORD PTR __imp_?activate@QMetaObject@@SAXPEAVQObject@@PEBU1@HPEAPEAX@Z
; Line 140
	add	rsp, 56					; 00000038H
	ret	0
?sendDataSrcChosen@DataSource@@QEAAXH@Z ENDP		; DataSource::sendDataSrcChosen
_TEXT	ENDS
; Function compile flags: /Odtp
_TEXT	SEGMENT
tv69 = 32
tv93 = 36
_t$1 = 40
result$2 = 48
$T3 = 56
_o$ = 96
_c$ = 104
_id$ = 112
_a$ = 120
?qt_static_metacall@DataSource@@CAXPEAVQObject@@W4Call@QMetaObject@@HPEAPEAX@Z PROC ; DataSource::qt_static_metacall
; File c:\users\lx\desktop\moldmachine\moldmachine\moldmachine\x64\debug\moc\moc_datasource.cpp
; Line 74
$LN15:
	mov	QWORD PTR [rsp+32], r9
	mov	DWORD PTR [rsp+24], r8d
	mov	DWORD PTR [rsp+16], edx
	mov	QWORD PTR [rsp+8], rcx
	sub	rsp, 88					; 00000058H
; Line 75
	cmp	DWORD PTR _c$[rsp], 0
	jne	SHORT $LN4@qt_static_
; Line 76
	mov	rax, QWORD PTR _o$[rsp]
	mov	QWORD PTR _t$1[rsp], rax
; Line 78
	mov	eax, DWORD PTR _id$[rsp]
	mov	DWORD PTR tv69[rsp], eax
	cmp	DWORD PTR tv69[rsp], 0
	je	SHORT $LN6@qt_static_
	cmp	DWORD PTR tv69[rsp], 1
	je	SHORT $LN7@qt_static_
	jmp	SHORT $LN8@qt_static_
$LN6@qt_static_:
; Line 79
	mov	eax, 8
	imul	rax, rax, 1
	mov	rcx, QWORD PTR _a$[rsp]
	mov	rax, QWORD PTR [rcx+rax]
	mov	edx, DWORD PTR [rax]
	mov	rcx, QWORD PTR _t$1[rsp]
	call	?sendDataSrcChosen@DataSource@@QEAAXH@Z	; DataSource::sendDataSrcChosen
	jmp	SHORT $LN2@qt_static_
$LN7@qt_static_:
; Line 80
	mov	rcx, QWORD PTR _t$1[rsp]
	call	?buttonApplyClicked@DataSource@@AEAAXXZ	; DataSource::buttonApplyClicked
$LN8@qt_static_:
$LN2@qt_static_:
; Line 83
	jmp	$LN5@qt_static_
$LN4@qt_static_:
	cmp	DWORD PTR _c$[rsp], 10
	jne	$LN9@qt_static_
; Line 84
	mov	eax, 8
	imul	rax, rax, 0
	mov	rcx, QWORD PTR _a$[rsp]
	mov	rax, QWORD PTR [rcx+rax]
	mov	QWORD PTR result$2[rsp], rax
; Line 87
	lea	rax, OFFSET FLAT:?sendDataSrcChosen@DataSource@@QEAAXH@Z ; DataSource::sendDataSrcChosen
	mov	QWORD PTR $T3[rsp], rax
	mov	DWORD PTR $T3[rsp+8], 0
	mov	eax, 8
	imul	rax, rax, 1
	mov	rcx, QWORD PTR _a$[rsp]
	mov	rax, QWORD PTR [rcx+rax]
	mov	rcx, QWORD PTR $T3[rsp]
	cmp	QWORD PTR [rax], rcx
	jne	SHORT $LN13@qt_static_
	mov	eax, 8
	imul	rax, rax, 1
	mov	rcx, QWORD PTR _a$[rsp]
	mov	rax, QWORD PTR [rcx+rax]
	cmp	QWORD PTR [rax], 0
	je	SHORT $LN12@qt_static_
	mov	eax, 8
	imul	rax, rax, 1
	mov	rcx, QWORD PTR _a$[rsp]
	mov	rax, QWORD PTR [rcx+rax]
	mov	ecx, DWORD PTR $T3[rsp+8]
	cmp	DWORD PTR [rax+8], ecx
	jne	SHORT $LN13@qt_static_
$LN12@qt_static_:
	mov	DWORD PTR tv93[rsp], 1
	jmp	SHORT $LN14@qt_static_
$LN13@qt_static_:
	mov	DWORD PTR tv93[rsp], 0
$LN14@qt_static_:
	cmp	DWORD PTR tv93[rsp], 0
	je	SHORT $LN10@qt_static_
; Line 88
	mov	rax, QWORD PTR result$2[rsp]
	mov	DWORD PTR [rax], 0
$LN10@qt_static_:
$LN9@qt_static_:
$LN5@qt_static_:
; Line 93
	add	rsp, 88					; 00000058H
	ret	0
?qt_static_metacall@DataSource@@CAXPEAVQObject@@W4Call@QMetaObject@@HPEAPEAX@Z ENDP ; DataSource::qt_static_metacall
_TEXT	ENDS
; Function compile flags: /Odtp
_TEXT	SEGMENT
this$ = 48
_c$ = 56
_id$ = 64
_a$ = 72
?qt_metacall@DataSource@@UEAAHW4Call@QMetaObject@@HPEAPEAX@Z PROC ; DataSource::qt_metacall
; File c:\users\lx\desktop\moldmachine\moldmachine\moldmachine\x64\debug\moc\moc_datasource.cpp
; Line 119
$LN9:
	mov	QWORD PTR [rsp+32], r9
	mov	DWORD PTR [rsp+24], r8d
	mov	DWORD PTR [rsp+16], edx
	mov	QWORD PTR [rsp+8], rcx
	sub	rsp, 40					; 00000028H
; Line 120
	mov	r9, QWORD PTR _a$[rsp]
	mov	r8d, DWORD PTR _id$[rsp]
	mov	edx, DWORD PTR _c$[rsp]
	mov	rcx, QWORD PTR this$[rsp]
	call	QWORD PTR __imp_?qt_metacall@QWidget@@UEAAHW4Call@QMetaObject@@HPEAPEAX@Z
	mov	DWORD PTR _id$[rsp], eax
; Line 121
	cmp	DWORD PTR _id$[rsp], 0
	jge	SHORT $LN2@qt_metacal
; Line 122
	mov	eax, DWORD PTR _id$[rsp]
	jmp	SHORT $LN1@qt_metacal
$LN2@qt_metacal:
; Line 123
	cmp	DWORD PTR _c$[rsp], 0
	jne	SHORT $LN3@qt_metacal
; Line 124
	cmp	DWORD PTR _id$[rsp], 2
	jge	SHORT $LN5@qt_metacal
; Line 125
	mov	r9, QWORD PTR _a$[rsp]
	mov	r8d, DWORD PTR _id$[rsp]
	mov	edx, DWORD PTR _c$[rsp]
	mov	rcx, QWORD PTR this$[rsp]
	call	?qt_static_metacall@DataSource@@CAXPEAVQObject@@W4Call@QMetaObject@@HPEAPEAX@Z ; DataSource::qt_static_metacall
$LN5@qt_metacal:
; Line 126
	mov	eax, DWORD PTR _id$[rsp]
	sub	eax, 2
	mov	DWORD PTR _id$[rsp], eax
	jmp	SHORT $LN4@qt_metacal
$LN3@qt_metacal:
; Line 127
	cmp	DWORD PTR _c$[rsp], 12
	jne	SHORT $LN6@qt_metacal
; Line 128
	cmp	DWORD PTR _id$[rsp], 2
	jge	SHORT $LN7@qt_metacal
; Line 129
	mov	eax, 8
	imul	rax, rax, 0
	mov	rcx, QWORD PTR _a$[rsp]
	mov	rax, QWORD PTR [rcx+rax]
	mov	DWORD PTR [rax], -1
$LN7@qt_metacal:
; Line 130
	mov	eax, DWORD PTR _id$[rsp]
	sub	eax, 2
	mov	DWORD PTR _id$[rsp], eax
$LN6@qt_metacal:
$LN4@qt_metacal:
; Line 132
	mov	eax, DWORD PTR _id$[rsp]
$LN1@qt_metacal:
; Line 133
	add	rsp, 40					; 00000028H
	ret	0
?qt_metacall@DataSource@@UEAAHW4Call@QMetaObject@@HPEAPEAX@Z ENDP ; DataSource::qt_metacall
_TEXT	ENDS
; Function compile flags: /Odtp
_TEXT	SEGMENT
this$ = 48
_clname$ = 56
?qt_metacast@DataSource@@UEAAPEAXPEBD@Z PROC		; DataSource::qt_metacast
; File c:\users\lx\desktop\moldmachine\moldmachine\moldmachine\x64\debug\moc\moc_datasource.cpp
; Line 111
$LN5:
	mov	QWORD PTR [rsp+16], rdx
	mov	QWORD PTR [rsp+8], rcx
	sub	rsp, 40					; 00000028H
; Line 112
	cmp	QWORD PTR _clname$[rsp], 0
	jne	SHORT $LN2@qt_metacas
	xor	eax, eax
	jmp	SHORT $LN1@qt_metacas
$LN2@qt_metacas:
; Line 113
	lea	rdx, OFFSET FLAT:?qt_meta_stringdata_DataSource@@3Uqt_meta_stringdata_DataSource_t@@B+96
	mov	rcx, QWORD PTR _clname$[rsp]
	call	strcmp
	test	eax, eax
	jne	SHORT $LN3@qt_metacas
; Line 114
	mov	rax, QWORD PTR this$[rsp]
	jmp	SHORT $LN1@qt_metacas
$LN3@qt_metacas:
; Line 115
	mov	rdx, QWORD PTR _clname$[rsp]
	mov	rcx, QWORD PTR this$[rsp]
	call	QWORD PTR __imp_?qt_metacast@QWidget@@UEAAPEAXPEBD@Z
$LN1@qt_metacas:
; Line 116
	add	rsp, 40					; 00000028H
	ret	0
?qt_metacast@DataSource@@UEAAPEAXPEBD@Z ENDP		; DataSource::qt_metacast
_TEXT	ENDS
; Function compile flags: /Odtp
_TEXT	SEGMENT
tv82 = 32
this$ = 64
?metaObject@DataSource@@UEBAPEBUQMetaObject@@XZ PROC	; DataSource::metaObject
; File c:\users\lx\desktop\moldmachine\moldmachine\moldmachine\x64\debug\moc\moc_datasource.cpp
; Line 106
$LN5:
	mov	QWORD PTR [rsp+8], rcx
	sub	rsp, 56					; 00000038H
; Line 107
	mov	rax, QWORD PTR this$[rsp]
	add	rax, 8
	mov	rcx, rax
	call	??C?$QScopedPointer@VQObjectData@@U?$QScopedPointerDeleter@VQObjectData@@@@@@QEBAPEAVQObjectData@@XZ ; QScopedPointer<QObjectData,QScopedPointerDeleter<QObjectData> >::operator->
	cmp	QWORD PTR [rax+40], 0
	je	SHORT $LN3@metaObject
	mov	rax, QWORD PTR this$[rsp]
	add	rax, 8
	mov	rcx, rax
	call	??C?$QScopedPointer@VQObjectData@@U?$QScopedPointerDeleter@VQObjectData@@@@@@QEBAPEAVQObjectData@@XZ ; QScopedPointer<QObjectData,QScopedPointerDeleter<QObjectData> >::operator->
	mov	rcx, rax
	call	QWORD PTR __imp_?dynamicMetaObject@QObjectData@@QEBAPEAUQMetaObject@@XZ
	mov	QWORD PTR tv82[rsp], rax
	jmp	SHORT $LN4@metaObject
$LN3@metaObject:
	lea	rax, OFFSET FLAT:?staticMetaObject@DataSource@@2UQMetaObject@@B ; DataSource::staticMetaObject
	mov	QWORD PTR tv82[rsp], rax
$LN4@metaObject:
	mov	rax, QWORD PTR tv82[rsp]
; Line 108
	add	rsp, 56					; 00000038H
	ret	0
?metaObject@DataSource@@UEBAPEBUQMetaObject@@XZ ENDP	; DataSource::metaObject
_TEXT	ENDS
; Function compile flags: /Odtp
;	COMDAT ??C?$QScopedPointer@VQObjectData@@U?$QScopedPointerDeleter@VQObjectData@@@@@@QEBAPEAVQObjectData@@XZ
_TEXT	SEGMENT
this$ = 8
??C?$QScopedPointer@VQObjectData@@U?$QScopedPointerDeleter@VQObjectData@@@@@@QEBAPEAVQObjectData@@XZ PROC ; QScopedPointer<QObjectData,QScopedPointerDeleter<QObjectData> >::operator->, COMDAT
; File e:\qt\5.12.3\msvc2015_64\include\qtcore\qscopedpointer.h
; Line 117
	mov	QWORD PTR [rsp+8], rcx
; Line 118
	mov	rax, QWORD PTR this$[rsp]
	mov	rax, QWORD PTR [rax]
; Line 119
	ret	0
??C?$QScopedPointer@VQObjectData@@U?$QScopedPointerDeleter@VQObjectData@@@@@@QEBAPEAVQObjectData@@XZ ENDP ; QScopedPointer<QObjectData,QScopedPointerDeleter<QObjectData> >::operator->
_TEXT	ENDS
; Function compile flags: /Odtp
;	COMDAT ?__empty_global_delete@@YAXPEAX_K@Z
_TEXT	SEGMENT
__formal$ = 8
__formal$ = 16
?__empty_global_delete@@YAXPEAX_K@Z PROC		; __empty_global_delete, COMDAT
; File c:\users\lx\desktop\moldmachine\moldmachine\moldmachine\x64\debug\moc\moc_datasource.cpp
; Line 143
	mov	QWORD PTR [rsp+16], rdx
	mov	QWORD PTR [rsp+8], rcx
	ret	0
?__empty_global_delete@@YAXPEAX_K@Z ENDP		; __empty_global_delete
_TEXT	ENDS
; Function compile flags: /Odtp
;	COMDAT ?__empty_global_delete@@YAXPEAX@Z
_TEXT	SEGMENT
__formal$ = 8
?__empty_global_delete@@YAXPEAX@Z PROC			; __empty_global_delete, COMDAT
; File c:\users\lx\desktop\moldmachine\moldmachine\moldmachine\x64\debug\moc\moc_datasource.cpp
; Line 143
	mov	QWORD PTR [rsp+8], rcx
	ret	0
?__empty_global_delete@@YAXPEAX@Z ENDP			; __empty_global_delete
_TEXT	ENDS
END
