; Listing generated by Microsoft (R) Optimizing Compiler Version 19.00.24215.1 

include listing.inc

INCLUDELIB MSVCRTD
INCLUDELIB OLDNAMES

CONST	SEGMENT
$SG281607 DB	'E:\Qt\5.12.3\msvc2015_64\include\QtCore/qmetatype.h', 00H
$SG160968 DB	'cvMat', 00H
	ORG $+6
$SG281608 DB	'qRegisterNormalizedMetaType was called with a not normal'
	DB	'ized type name, please call qRegisterMetaType instead.', 00H
	ORG $+1
$SG281609 DB	'qRegisterNormalizedMetaType', 00H
$SG158985 DB	' x ', 00H
$SG282681 DB	'E:\Qt\5.12.3\msvc2015_64\include\QtCore/qmetatype.h', 00H
$SG159013 DB	')', 00H
	ORG $+2
$SG279690 DB	'E:\Qt\5.12.3\msvc2015_64\include\QtCore/qmetatype.h', 00H
	ORG $+4
$SG282682 DB	'qRegisterNormalizedMetaType was called with a not normal'
	DB	'ized type name, please call qRegisterMetaType instead.', 00H
	ORG $+1
$SG282683 DB	'qRegisterNormalizedMetaType', 00H
	ORG $+4
$SG279691 DB	'qRegisterNormalizedMetaType was called with a not normal'
	DB	'ized type name, please call qRegisterMetaType instead.', 00H
	ORG $+1
$SG279692 DB	'qRegisterNormalizedMetaType', 00H
	ORG $+4
$SG162999 DB	'D', 00H, ':', 00H, '\', 00H, 'O', 00H, 'p', 00H, 'e', 00H
	DB	'n', 00H, 'c', 00H, 'v', 00H, '\', 00H, 'o', 00H, 'p', 00H, 'e'
	DB	00H, 'n', 00H, 'c', 00H, 'v', 00H, '\', 00H, 'b', 00H, 'u', 00H
	DB	'i', 00H, 'l', 00H, 'd', 00H, '\', 00H, 'i', 00H, 'n', 00H, 'c'
	DB	00H, 'l', 00H, 'u', 00H, 'd', 00H, 'e', 00H, '\', 00H, 'o', 00H
	DB	'p', 00H, 'e', 00H, 'n', 00H, 'c', 00H, 'v', 00H, '2', 00H, '/'
	DB	00H, 'c', 00H, 'o', 00H, 'r', 00H, 'e', 00H, '/', 00H, 'c', 00H
	DB	'o', 00H, 'r', 00H, 'e', 00H, '_', 00H, 'c', 00H, '.', 00H, 'h'
	DB	00H, 00H, 00H
	ORG $+2
$SG159014 DB	' : ', 00H
$SG163000 DB	'_', 00H, 'e', 00H, 'l', 00H, 'e', 00H, 'm', 00H, '-', 00H
	DB	'>', 00H, 'f', 00H, 'l', 00H, 'a', 00H, 'g', 00H, 's', 00H, ' '
	DB	00H, '>', 00H, '=', 00H, ' ', 00H, '0', 00H, 00H, 00H
$SG159015 DB	'[', 00H
	ORG $+2
$SG160967 DB	'D:\Opencv\opencv\build\include\opencv2/core/types_c.h', 00H
	ORG $+2
$SG160952 DB	'D', 00H, ':', 00H, '\', 00H, 'O', 00H, 'p', 00H, 'e', 00H
	DB	'n', 00H, 'c', 00H, 'v', 00H, '\', 00H, 'o', 00H, 'p', 00H, 'e'
	DB	00H, 'n', 00H, 'c', 00H, 'v', 00H, '\', 00H, 'b', 00H, 'u', 00H
	DB	'i', 00H, 'l', 00H, 'd', 00H, '\', 00H, 'i', 00H, 'n', 00H, 'c'
	DB	00H, 'l', 00H, 'u', 00H, 'd', 00H, 'e', 00H, '\', 00H, 'o', 00H
	DB	'p', 00H, 'e', 00H, 'n', 00H, 'c', 00H, 'v', 00H, '2', 00H, '/'
	DB	00H, 'c', 00H, 'o', 00H, 'r', 00H, 'e', 00H, '/', 00H, 't', 00H
	DB	'y', 00H, 'p', 00H, 'e', 00H, 's', 00H, '_', 00H, 'c', 00H, '.'
	DB	00H, 'h', 00H, 00H, 00H
	ORG $+4
$SG160953 DB	'(', 00H, 'u', 00H, 'n', 00H, 's', 00H, 'i', 00H, 'g', 00H
	DB	'n', 00H, 'e', 00H, 'd', 00H, ')', 00H, 'C', 00H, 'V', 00H, '_'
	DB	00H, 'M', 00H, 'A', 00H, 'T', 00H, '_', 00H, 'D', 00H, 'E', 00H
	DB	'P', 00H, 'T', 00H, 'H', 00H, '(', 00H, 't', 00H, 'y', 00H, 'p'
	DB	00H, 'e', 00H, ')', 00H, ' ', 00H, '<', 00H, '=', 00H, ' ', 00H
	DB	'C', 00H, 'V', 00H, '_', 00H, '6', 00H, '4', 00H, 'F', 00H, 00H
	DB	00H
	ORG $+2
$SG160969 DB	'm.dims <= 2', 00H
	ORG $+4
$SG161001 DB	'D', 00H, ':', 00H, '\', 00H, 'O', 00H, 'p', 00H, 'e', 00H
	DB	'n', 00H, 'c', 00H, 'v', 00H, '\', 00H, 'o', 00H, 'p', 00H, 'e'
	DB	00H, 'n', 00H, 'c', 00H, 'v', 00H, '\', 00H, 'b', 00H, 'u', 00H
	DB	'i', 00H, 'l', 00H, 'd', 00H, '\', 00H, 'i', 00H, 'n', 00H, 'c'
	DB	00H, 'l', 00H, 'u', 00H, 'd', 00H, 'e', 00H, '\', 00H, 'o', 00H
	DB	'p', 00H, 'e', 00H, 'n', 00H, 'c', 00H, 'v', 00H, '2', 00H, '/'
	DB	00H, 'c', 00H, 'o', 00H, 'r', 00H, 'e', 00H, '/', 00H, 't', 00H
	DB	'y', 00H, 'p', 00H, 'e', 00H, 's', 00H, '_', 00H, 'c', 00H, '.'
	DB	00H, 'h', 00H, 00H, 00H
	ORG $+4
$SG161002 DB	'(', 00H, 'u', 00H, 'n', 00H, 's', 00H, 'i', 00H, 'g', 00H
	DB	'n', 00H, 'e', 00H, 'd', 00H, ')', 00H, 'r', 00H, 'o', 00H, 'w'
	DB	00H, ' ', 00H, '<', 00H, ' ', 00H, '(', 00H, 'u', 00H, 'n', 00H
	DB	's', 00H, 'i', 00H, 'g', 00H, 'n', 00H, 'e', 00H, 'd', 00H, ')'
	DB	00H, 'm', 00H, 'a', 00H, 't', 00H, '-', 00H, '>', 00H, 'r', 00H
	DB	'o', 00H, 'w', 00H, 's', 00H, ' ', 00H, '&', 00H, '&', 00H, ' '
	DB	00H, '(', 00H, 'u', 00H, 'n', 00H, 's', 00H, 'i', 00H, 'g', 00H
	DB	'n', 00H, 'e', 00H, 'd', 00H, ')', 00H, 'c', 00H, 'o', 00H, 'l'
	DB	00H, ' ', 00H, '<', 00H, ' ', 00H, '(', 00H, 'u', 00H, 'n', 00H
	DB	's', 00H, 'i', 00H, 'g', 00H, 'n', 00H, 'e', 00H, 'd', 00H, ')'
	DB	00H, 'm', 00H, 'a', 00H, 't', 00H, '-', 00H, '>', 00H, 'c', 00H
	DB	'o', 00H, 'l', 00H, 's', 00H, 00H, 00H
	ORG $+2
$SG161006 DB	't', 00H, 'y', 00H, 'p', 00H, 'e', 00H, ' ', 00H, '=', 00H
	DB	'=', 00H, ' ', 00H, 'C', 00H, 'V', 00H, '_', 00H, '6', 00H, '4'
	DB	00H, 'F', 00H, 'C', 00H, '1', 00H, 00H, 00H
	ORG $+6
$SG161005 DB	'D', 00H, ':', 00H, '\', 00H, 'O', 00H, 'p', 00H, 'e', 00H
	DB	'n', 00H, 'c', 00H, 'v', 00H, '\', 00H, 'o', 00H, 'p', 00H, 'e'
	DB	00H, 'n', 00H, 'c', 00H, 'v', 00H, '\', 00H, 'b', 00H, 'u', 00H
	DB	'i', 00H, 'l', 00H, 'd', 00H, '\', 00H, 'i', 00H, 'n', 00H, 'c'
	DB	00H, 'l', 00H, 'u', 00H, 'd', 00H, 'e', 00H, '\', 00H, 'o', 00H
	DB	'p', 00H, 'e', 00H, 'n', 00H, 'c', 00H, 'v', 00H, '2', 00H, '/'
	DB	00H, 'c', 00H, 'o', 00H, 'r', 00H, 'e', 00H, '/', 00H, 't', 00H
	DB	'y', 00H, 'p', 00H, 'e', 00H, 's', 00H, '_', 00H, 'c', 00H, '.'
	DB	00H, 'h', 00H, 00H, 00H
	ORG $+4
$SG161029 DB	'D', 00H, ':', 00H, '\', 00H, 'O', 00H, 'p', 00H, 'e', 00H
	DB	'n', 00H, 'c', 00H, 'v', 00H, '\', 00H, 'o', 00H, 'p', 00H, 'e'
	DB	00H, 'n', 00H, 'c', 00H, 'v', 00H, '\', 00H, 'b', 00H, 'u', 00H
	DB	'i', 00H, 'l', 00H, 'd', 00H, '\', 00H, 'i', 00H, 'n', 00H, 'c'
	DB	00H, 'l', 00H, 'u', 00H, 'd', 00H, 'e', 00H, '\', 00H, 'o', 00H
	DB	'p', 00H, 'e', 00H, 'n', 00H, 'c', 00H, 'v', 00H, '2', 00H, '/'
	DB	00H, 'c', 00H, 'o', 00H, 'r', 00H, 'e', 00H, '/', 00H, 't', 00H
	DB	'y', 00H, 'p', 00H, 'e', 00H, 's', 00H, '_', 00H, 'c', 00H, '.'
	DB	00H, 'h', 00H, 00H, 00H
	ORG $+4
$SG161030 DB	'(', 00H, 'u', 00H, 'n', 00H, 's', 00H, 'i', 00H, 'g', 00H
	DB	'n', 00H, 'e', 00H, 'd', 00H, ')', 00H, 'r', 00H, 'o', 00H, 'w'
	DB	00H, ' ', 00H, '<', 00H, ' ', 00H, '(', 00H, 'u', 00H, 'n', 00H
	DB	's', 00H, 'i', 00H, 'g', 00H, 'n', 00H, 'e', 00H, 'd', 00H, ')'
	DB	00H, 'm', 00H, 'a', 00H, 't', 00H, '-', 00H, '>', 00H, 'r', 00H
	DB	'o', 00H, 'w', 00H, 's', 00H, ' ', 00H, '&', 00H, '&', 00H, ' '
	DB	00H, '(', 00H, 'u', 00H, 'n', 00H, 's', 00H, 'i', 00H, 'g', 00H
	DB	'n', 00H, 'e', 00H, 'd', 00H, ')', 00H, 'c', 00H, 'o', 00H, 'l'
	DB	00H, ' ', 00H, '<', 00H, ' ', 00H, '(', 00H, 'u', 00H, 'n', 00H
	DB	's', 00H, 'i', 00H, 'g', 00H, 'n', 00H, 'e', 00H, 'd', 00H, ')'
	DB	00H, 'm', 00H, 'a', 00H, 't', 00H, '-', 00H, '>', 00H, 'c', 00H
	DB	'o', 00H, 'l', 00H, 's', 00H, 00H, 00H
	ORG $+2
$SG161034 DB	't', 00H, 'y', 00H, 'p', 00H, 'e', 00H, ' ', 00H, '=', 00H
	DB	'=', 00H, ' ', 00H, 'C', 00H, 'V', 00H, '_', 00H, '6', 00H, '4'
	DB	00H, 'F', 00H, 'C', 00H, '1', 00H, 00H, 00H
	ORG $+6
$SG161033 DB	'D', 00H, ':', 00H, '\', 00H, 'O', 00H, 'p', 00H, 'e', 00H
	DB	'n', 00H, 'c', 00H, 'v', 00H, '\', 00H, 'o', 00H, 'p', 00H, 'e'
	DB	00H, 'n', 00H, 'c', 00H, 'v', 00H, '\', 00H, 'b', 00H, 'u', 00H
	DB	'i', 00H, 'l', 00H, 'd', 00H, '\', 00H, 'i', 00H, 'n', 00H, 'c'
	DB	00H, 'l', 00H, 'u', 00H, 'd', 00H, 'e', 00H, '\', 00H, 'o', 00H
	DB	'p', 00H, 'e', 00H, 'n', 00H, 'c', 00H, 'v', 00H, '2', 00H, '/'
	DB	00H, 'c', 00H, 'o', 00H, 'r', 00H, 'e', 00H, '/', 00H, 't', 00H
	DB	'y', 00H, 'p', 00H, 'e', 00H, 's', 00H, '_', 00H, 'c', 00H, '.'
	DB	00H, 'h', 00H, 00H, 00H
$SG159149 DB	'sec', 00H
$SG280875 DB	'E:\Qt\5.12.3\msvc2015_64\include\QtCore/qmetatype.h', 00H
$SG159185 DB	'a >= 0', 00H
	ORG $+5
$SG280876 DB	'qRegisterNormalizedMetaType was called with a not normal'
	DB	'ized type name, please call qRegisterMetaType instead.', 00H
	ORG $+1
$SG280877 DB	'qRegisterNormalizedMetaType', 00H
	ORG $+4
$SG159170 DB	'D:\Opencv\opencv\build\include\opencv2/core/utility.hpp', 00H
$SG159171 DB	'cv::alignSize', 00H
	ORG $+2
$SG159172 DB	'(n & (n - 1)) == 0', 00H
	ORG $+5
$SG280012 DB	'E:\Qt\5.12.3\msvc2015_64\include\QtCore/qmetatype.h', 00H
$SG159203 DB	'a >= 0', 00H
	ORG $+5
$SG280013 DB	'qRegisterNormalizedMetaType was called with a not normal'
	DB	'ized type name, please call qRegisterMetaType instead.', 00H
	ORG $+1
$SG280014 DB	'qRegisterNormalizedMetaType', 00H
	ORG $+4
$SG159183 DB	'D:\Opencv\opencv\build\include\opencv2/core/utility.hpp', 00H
$SG159184 DB	'cv::divUp', 00H
	ORG $+6
$SG159201 DB	'D:\Opencv\opencv\build\include\opencv2/core/utility.hpp', 00H
$SG159202 DB	'cv::roundUp', 00H
	ORG $+4
?qt_meta_stringdata_ImageSetting@@3Uqt_meta_stringdata_ImageSetting_t@@B DD 0ffffffffH ; qt_meta_stringdata_ImageSetting
	DD	0cH
	DD	00H
	ORG $+4
	DQ	00000000000000c0H
	DD	0ffffffffH
	DD	011H
	DD	00H
	ORG $+4
	DQ	00000000000000b5H
	DD	0ffffffffH
	DD	00H
	DD	00H
	ORG $+4
	DQ	00000000000000afH
	DD	0ffffffffH
	DD	0dH
	DD	00H
	ORG $+4
	DQ	0000000000000098H
	DD	0ffffffffH
	DD	09H
	DD	00H
	ORG $+4
	DQ	000000000000008eH
	DD	0ffffffffH
	DD	09H
	DD	00H
	ORG $+4
	DQ	0000000000000080H
	DD	0ffffffffH
	DD	0eH
	DD	00H
	ORG $+4
	DQ	0000000000000072H
	DD	0ffffffffH
	DD	09H
	DD	00H
	ORG $+4
	DQ	0000000000000069H
	DB	'ImageSetting', 00H, 'buttonSureClicked', 00H, 00H, 'comb'
	DB	'oxChanged', 00H, 'imageShot', 00H, 'imageLive', 00H, 'deleteL'
	DB	'andMark', 00H, 'imageSave', 00H
	ORG $+5
$SG281285 DB	'E:\Qt\5.12.3\msvc2015_64\include\QtCore/qmetatype.h', 00H
	ORG $+12
$SG281286 DB	'qRegisterNormalizedMetaType was called with a not normal'
	DB	'ized type name, please call qRegisterMetaType instead.', 00H
	ORG $+1
$SG281287 DB	'qRegisterNormalizedMetaType', 00H
	ORG $+4
?qt_meta_data_ImageSetting@@3QBIB DD 08H		; qt_meta_data_ImageSetting
	DD	00H
	DD	00H
	DD	00H
	DD	06H
	DD	0eH
	DD	00H
	DD	00H
	DD	00H
	DD	00H
	DD	00H
	DD	00H
	DD	00H
	DD	00H
	DD	01H
	DD	00H
	DD	02cH
	DD	02H
	DD	08H
	DD	03H
	DD	01H
	DD	02dH
	DD	02H
	DD	08H
	DD	04H
	DD	00H
	DD	030H
	DD	02H
	DD	08H
	DD	05H
	DD	00H
	DD	031H
	DD	02H
	DD	08H
	DD	06H
	DD	00H
	DD	032H
	DD	02H
	DD	08H
	DD	07H
	DD	00H
	DD	033H
	DD	02H
	DD	08H
	DD	02bH
	DD	02bH
	DD	02H
	DD	02H
	DD	02bH
	DD	02bH
	DD	02bH
	DD	02bH
	DD	00H
	ORG $+4
$SG279368 DB	'E:\Qt\5.12.3\msvc2015_64\include\QtCore/qmetatype.h', 00H
	ORG $+4
$SG279369 DB	'qRegisterNormalizedMetaType was called with a not normal'
	DB	'ized type name, please call qRegisterMetaType instead.', 00H
	ORG $+1
$SG279370 DB	'qRegisterNormalizedMetaType', 00H
CONST	ENDS
PUBLIC	?__empty_global_delete@@YAXPEAX@Z		; __empty_global_delete
PUBLIC	?__empty_global_delete@@YAXPEAX_K@Z		; __empty_global_delete
PUBLIC	??C?$QScopedPointer@VQObjectData@@U?$QScopedPointerDeleter@VQObjectData@@@@@@QEBAPEAVQObjectData@@XZ ; QScopedPointer<QObjectData,QScopedPointerDeleter<QObjectData> >::operator->
PUBLIC	?metaObject@ImageSetting@@UEBAPEBUQMetaObject@@XZ ; ImageSetting::metaObject
PUBLIC	?qt_metacast@ImageSetting@@UEAAPEAXPEBD@Z	; ImageSetting::qt_metacast
PUBLIC	?qt_metacall@ImageSetting@@UEAAHW4Call@QMetaObject@@HPEAPEAX@Z ; ImageSetting::qt_metacall
PUBLIC	?qt_static_metacall@ImageSetting@@CAXPEAVQObject@@W4Call@QMetaObject@@HPEAPEAX@Z ; ImageSetting::qt_static_metacall
PUBLIC	?staticMetaObject@ImageSetting@@2UQMetaObject@@B ; ImageSetting::staticMetaObject
EXTRN	strcmp:PROC
EXTRN	__imp_?dynamicMetaObject@QObjectData@@QEBAPEAUQMetaObject@@XZ:PROC
EXTRN	__imp_?qt_metacast@QMainWindow@@UEAAPEAXPEBD@Z:PROC
EXTRN	__imp_?qt_metacall@QMainWindow@@UEAAHW4Call@QMetaObject@@HPEAPEAX@Z:PROC
EXTRN	?buttonSureClicked@ImageSetting@@AEAAXXZ:PROC	; ImageSetting::buttonSureClicked
EXTRN	?comboxChanged@ImageSetting@@AEAAXH@Z:PROC	; ImageSetting::comboxChanged
EXTRN	?imageShot@ImageSetting@@AEAAXXZ:PROC		; ImageSetting::imageShot
EXTRN	?imageLive@ImageSetting@@AEAAXXZ:PROC		; ImageSetting::imageLive
EXTRN	?deleteLandMark@ImageSetting@@AEAAXXZ:PROC	; ImageSetting::deleteLandMark
EXTRN	?imageSave@ImageSetting@@AEAAXXZ:PROC		; ImageSetting::imageSave
EXTRN	__imp_?staticMetaObject@QMainWindow@@2UQMetaObject@@B:BYTE
EXTRN	__ImageBase:BYTE
_BSS	SEGMENT
?staticMetaObject@ImageSetting@@2UQMetaObject@@B DB 030H DUP (?) ; ImageSetting::staticMetaObject
_BSS	ENDS
pdata	SEGMENT
$pdata$?metaObject@ImageSetting@@UEBAPEBUQMetaObject@@XZ DD imagerel $LN5
	DD	imagerel $LN5+88
	DD	imagerel $unwind$?metaObject@ImageSetting@@UEBAPEBUQMetaObject@@XZ
$pdata$?qt_metacast@ImageSetting@@UEAAPEAXPEBD@Z DD imagerel $LN5
	DD	imagerel $LN5+75
	DD	imagerel $unwind$?qt_metacast@ImageSetting@@UEAAPEAXPEBD@Z
$pdata$?qt_metacall@ImageSetting@@UEAAHW4Call@QMetaObject@@HPEAPEAX@Z DD imagerel $LN9
	DD	imagerel $LN9+174
	DD	imagerel $unwind$?qt_metacall@ImageSetting@@UEAAHW4Call@QMetaObject@@HPEAPEAX@Z
$pdata$?qt_static_metacall@ImageSetting@@CAXPEAVQObject@@W4Call@QMetaObject@@HPEAPEAX@Z DD imagerel $LN14
	DD	imagerel $LN14+204
	DD	imagerel $unwind$?qt_static_metacall@ImageSetting@@CAXPEAVQObject@@W4Call@QMetaObject@@HPEAPEAX@Z
pdata	ENDS
CRT$XCU	SEGMENT
??staticMetaObject$initializer$@ImageSetting@@2P6AXXZEA@@3P6AXXZEA DQ FLAT:??__E?staticMetaObject@ImageSetting@@2UQMetaObject@@B@@YAXXZ ; ??staticMetaObject$initializer$@ImageSetting@@2P6AXXZEA@@3P6AXXZEA
CRT$XCU	ENDS
xdata	SEGMENT
$unwind$?metaObject@ImageSetting@@UEBAPEBUQMetaObject@@XZ DD 010901H
	DD	06209H
$unwind$?qt_metacast@ImageSetting@@UEAAPEAXPEBD@Z DD 010e01H
	DD	0420eH
$unwind$?qt_metacall@ImageSetting@@UEAAHW4Call@QMetaObject@@HPEAPEAX@Z DD 011701H
	DD	04217H
$unwind$?qt_static_metacall@ImageSetting@@CAXPEAVQObject@@W4Call@QMetaObject@@HPEAPEAX@Z DD 011701H
	DD	06217H
xdata	ENDS
; Function compile flags: /Odtp
;	COMDAT ??__E?staticMetaObject@ImageSetting@@2UQMetaObject@@B@@YAXXZ
text$di	SEGMENT
??__E?staticMetaObject@ImageSetting@@2UQMetaObject@@B@@YAXXZ PROC ; `dynamic initializer for 'ImageSetting::staticMetaObject'', COMDAT
; File c:\users\lx\desktop\moldmachine\moldmachine\moldmachine\x64\debug\moc\moc_imagesetting.cpp
; Line 100
	mov	rax, QWORD PTR __imp_?staticMetaObject@QMainWindow@@2UQMetaObject@@B
	mov	QWORD PTR ?staticMetaObject@ImageSetting@@2UQMetaObject@@B, rax
; Line 101
	lea	rax, OFFSET FLAT:?qt_meta_stringdata_ImageSetting@@3Uqt_meta_stringdata_ImageSetting_t@@B
	mov	QWORD PTR ?staticMetaObject@ImageSetting@@2UQMetaObject@@B+8, rax
; Line 102
	lea	rax, OFFSET FLAT:?qt_meta_data_ImageSetting@@3QBIB
	mov	QWORD PTR ?staticMetaObject@ImageSetting@@2UQMetaObject@@B+16, rax
; Line 103
	lea	rax, OFFSET FLAT:?qt_static_metacall@ImageSetting@@CAXPEAVQObject@@W4Call@QMetaObject@@HPEAPEAX@Z ; ImageSetting::qt_static_metacall
	mov	QWORD PTR ?staticMetaObject@ImageSetting@@2UQMetaObject@@B+24, rax
; Line 104
	mov	QWORD PTR ?staticMetaObject@ImageSetting@@2UQMetaObject@@B+32, 0
; Line 105
	mov	QWORD PTR ?staticMetaObject@ImageSetting@@2UQMetaObject@@B+40, 0
	ret	0
??__E?staticMetaObject@ImageSetting@@2UQMetaObject@@B@@YAXXZ ENDP ; `dynamic initializer for 'ImageSetting::staticMetaObject''
text$di	ENDS
; Function compile flags: /Odtp
_TEXT	SEGMENT
tv69 = 32
_t$1 = 40
_o$ = 64
_c$ = 72
_id$ = 80
_a$ = 88
?qt_static_metacall@ImageSetting@@CAXPEAVQObject@@W4Call@QMetaObject@@HPEAPEAX@Z PROC ; ImageSetting::qt_static_metacall
; File c:\users\lx\desktop\moldmachine\moldmachine\moldmachine\x64\debug\moc\moc_imagesetting.cpp
; Line 83
$LN14:
	mov	QWORD PTR [rsp+32], r9
	mov	DWORD PTR [rsp+24], r8d
	mov	DWORD PTR [rsp+16], edx
	mov	QWORD PTR [rsp+8], rcx
	sub	rsp, 56					; 00000038H
; Line 84
	cmp	DWORD PTR _c$[rsp], 0
	jne	$LN4@qt_static_
; Line 85
	mov	rax, QWORD PTR _o$[rsp]
	mov	QWORD PTR _t$1[rsp], rax
; Line 87
	mov	eax, DWORD PTR _id$[rsp]
	mov	DWORD PTR tv69[rsp], eax
	cmp	DWORD PTR tv69[rsp], 5
	ja	SHORT $LN11@qt_static_
	movsxd	rax, DWORD PTR tv69[rsp]
	lea	rcx, OFFSET FLAT:__ImageBase
	mov	eax, DWORD PTR $LN13@qt_static_[rcx+rax*4]
	add	rax, rcx
	jmp	rax
$LN5@qt_static_:
; Line 88
	mov	rcx, QWORD PTR _t$1[rsp]
	call	?buttonSureClicked@ImageSetting@@AEAAXXZ ; ImageSetting::buttonSureClicked
	jmp	SHORT $LN2@qt_static_
$LN6@qt_static_:
; Line 89
	mov	eax, 8
	imul	rax, rax, 1
	mov	rcx, QWORD PTR _a$[rsp]
	mov	rax, QWORD PTR [rcx+rax]
	mov	edx, DWORD PTR [rax]
	mov	rcx, QWORD PTR _t$1[rsp]
	call	?comboxChanged@ImageSetting@@AEAAXH@Z	; ImageSetting::comboxChanged
	jmp	SHORT $LN2@qt_static_
$LN7@qt_static_:
; Line 90
	mov	rcx, QWORD PTR _t$1[rsp]
	call	?imageShot@ImageSetting@@AEAAXXZ	; ImageSetting::imageShot
	jmp	SHORT $LN2@qt_static_
$LN8@qt_static_:
; Line 91
	mov	rcx, QWORD PTR _t$1[rsp]
	call	?imageLive@ImageSetting@@AEAAXXZ	; ImageSetting::imageLive
	jmp	SHORT $LN2@qt_static_
$LN9@qt_static_:
; Line 92
	mov	rcx, QWORD PTR _t$1[rsp]
	call	?deleteLandMark@ImageSetting@@AEAAXXZ	; ImageSetting::deleteLandMark
	jmp	SHORT $LN2@qt_static_
$LN10@qt_static_:
; Line 93
	mov	rcx, QWORD PTR _t$1[rsp]
	call	?imageSave@ImageSetting@@AEAAXXZ	; ImageSetting::imageSave
$LN11@qt_static_:
$LN2@qt_static_:
$LN4@qt_static_:
; Line 97
	add	rsp, 56					; 00000038H
	ret	0
	npad	2
$LN13@qt_static_:
	DD	$LN5@qt_static_
	DD	$LN6@qt_static_
	DD	$LN7@qt_static_
	DD	$LN8@qt_static_
	DD	$LN9@qt_static_
	DD	$LN10@qt_static_
?qt_static_metacall@ImageSetting@@CAXPEAVQObject@@W4Call@QMetaObject@@HPEAPEAX@Z ENDP ; ImageSetting::qt_static_metacall
_TEXT	ENDS
; Function compile flags: /Odtp
_TEXT	SEGMENT
this$ = 48
_c$ = 56
_id$ = 64
_a$ = 72
?qt_metacall@ImageSetting@@UEAAHW4Call@QMetaObject@@HPEAPEAX@Z PROC ; ImageSetting::qt_metacall
; File c:\users\lx\desktop\moldmachine\moldmachine\moldmachine\x64\debug\moc\moc_imagesetting.cpp
; Line 123
$LN9:
	mov	QWORD PTR [rsp+32], r9
	mov	DWORD PTR [rsp+24], r8d
	mov	DWORD PTR [rsp+16], edx
	mov	QWORD PTR [rsp+8], rcx
	sub	rsp, 40					; 00000028H
; Line 124
	mov	r9, QWORD PTR _a$[rsp]
	mov	r8d, DWORD PTR _id$[rsp]
	mov	edx, DWORD PTR _c$[rsp]
	mov	rcx, QWORD PTR this$[rsp]
	call	QWORD PTR __imp_?qt_metacall@QMainWindow@@UEAAHW4Call@QMetaObject@@HPEAPEAX@Z
	mov	DWORD PTR _id$[rsp], eax
; Line 125
	cmp	DWORD PTR _id$[rsp], 0
	jge	SHORT $LN2@qt_metacal
; Line 126
	mov	eax, DWORD PTR _id$[rsp]
	jmp	SHORT $LN1@qt_metacal
$LN2@qt_metacal:
; Line 127
	cmp	DWORD PTR _c$[rsp], 0
	jne	SHORT $LN3@qt_metacal
; Line 128
	cmp	DWORD PTR _id$[rsp], 6
	jge	SHORT $LN5@qt_metacal
; Line 129
	mov	r9, QWORD PTR _a$[rsp]
	mov	r8d, DWORD PTR _id$[rsp]
	mov	edx, DWORD PTR _c$[rsp]
	mov	rcx, QWORD PTR this$[rsp]
	call	?qt_static_metacall@ImageSetting@@CAXPEAVQObject@@W4Call@QMetaObject@@HPEAPEAX@Z ; ImageSetting::qt_static_metacall
$LN5@qt_metacal:
; Line 130
	mov	eax, DWORD PTR _id$[rsp]
	sub	eax, 6
	mov	DWORD PTR _id$[rsp], eax
	jmp	SHORT $LN4@qt_metacal
$LN3@qt_metacal:
; Line 131
	cmp	DWORD PTR _c$[rsp], 12
	jne	SHORT $LN6@qt_metacal
; Line 132
	cmp	DWORD PTR _id$[rsp], 6
	jge	SHORT $LN7@qt_metacal
; Line 133
	mov	eax, 8
	imul	rax, rax, 0
	mov	rcx, QWORD PTR _a$[rsp]
	mov	rax, QWORD PTR [rcx+rax]
	mov	DWORD PTR [rax], -1
$LN7@qt_metacal:
; Line 134
	mov	eax, DWORD PTR _id$[rsp]
	sub	eax, 6
	mov	DWORD PTR _id$[rsp], eax
$LN6@qt_metacal:
$LN4@qt_metacal:
; Line 136
	mov	eax, DWORD PTR _id$[rsp]
$LN1@qt_metacal:
; Line 137
	add	rsp, 40					; 00000028H
	ret	0
?qt_metacall@ImageSetting@@UEAAHW4Call@QMetaObject@@HPEAPEAX@Z ENDP ; ImageSetting::qt_metacall
_TEXT	ENDS
; Function compile flags: /Odtp
_TEXT	SEGMENT
this$ = 48
_clname$ = 56
?qt_metacast@ImageSetting@@UEAAPEAXPEBD@Z PROC		; ImageSetting::qt_metacast
; File c:\users\lx\desktop\moldmachine\moldmachine\moldmachine\x64\debug\moc\moc_imagesetting.cpp
; Line 115
$LN5:
	mov	QWORD PTR [rsp+16], rdx
	mov	QWORD PTR [rsp+8], rcx
	sub	rsp, 40					; 00000028H
; Line 116
	cmp	QWORD PTR _clname$[rsp], 0
	jne	SHORT $LN2@qt_metacas
	xor	eax, eax
	jmp	SHORT $LN1@qt_metacas
$LN2@qt_metacas:
; Line 117
	lea	rdx, OFFSET FLAT:?qt_meta_stringdata_ImageSetting@@3Uqt_meta_stringdata_ImageSetting_t@@B+192
	mov	rcx, QWORD PTR _clname$[rsp]
	call	strcmp
	test	eax, eax
	jne	SHORT $LN3@qt_metacas
; Line 118
	mov	rax, QWORD PTR this$[rsp]
	jmp	SHORT $LN1@qt_metacas
$LN3@qt_metacas:
; Line 119
	mov	rdx, QWORD PTR _clname$[rsp]
	mov	rcx, QWORD PTR this$[rsp]
	call	QWORD PTR __imp_?qt_metacast@QMainWindow@@UEAAPEAXPEBD@Z
$LN1@qt_metacas:
; Line 120
	add	rsp, 40					; 00000028H
	ret	0
?qt_metacast@ImageSetting@@UEAAPEAXPEBD@Z ENDP		; ImageSetting::qt_metacast
_TEXT	ENDS
; Function compile flags: /Odtp
_TEXT	SEGMENT
tv82 = 32
this$ = 64
?metaObject@ImageSetting@@UEBAPEBUQMetaObject@@XZ PROC	; ImageSetting::metaObject
; File c:\users\lx\desktop\moldmachine\moldmachine\moldmachine\x64\debug\moc\moc_imagesetting.cpp
; Line 110
$LN5:
	mov	QWORD PTR [rsp+8], rcx
	sub	rsp, 56					; 00000038H
; Line 111
	mov	rax, QWORD PTR this$[rsp]
	add	rax, 8
	mov	rcx, rax
	call	??C?$QScopedPointer@VQObjectData@@U?$QScopedPointerDeleter@VQObjectData@@@@@@QEBAPEAVQObjectData@@XZ ; QScopedPointer<QObjectData,QScopedPointerDeleter<QObjectData> >::operator->
	cmp	QWORD PTR [rax+40], 0
	je	SHORT $LN3@metaObject
	mov	rax, QWORD PTR this$[rsp]
	add	rax, 8
	mov	rcx, rax
	call	??C?$QScopedPointer@VQObjectData@@U?$QScopedPointerDeleter@VQObjectData@@@@@@QEBAPEAVQObjectData@@XZ ; QScopedPointer<QObjectData,QScopedPointerDeleter<QObjectData> >::operator->
	mov	rcx, rax
	call	QWORD PTR __imp_?dynamicMetaObject@QObjectData@@QEBAPEAUQMetaObject@@XZ
	mov	QWORD PTR tv82[rsp], rax
	jmp	SHORT $LN4@metaObject
$LN3@metaObject:
	lea	rax, OFFSET FLAT:?staticMetaObject@ImageSetting@@2UQMetaObject@@B ; ImageSetting::staticMetaObject
	mov	QWORD PTR tv82[rsp], rax
$LN4@metaObject:
	mov	rax, QWORD PTR tv82[rsp]
; Line 112
	add	rsp, 56					; 00000038H
	ret	0
?metaObject@ImageSetting@@UEBAPEBUQMetaObject@@XZ ENDP	; ImageSetting::metaObject
_TEXT	ENDS
; Function compile flags: /Odtp
;	COMDAT ??C?$QScopedPointer@VQObjectData@@U?$QScopedPointerDeleter@VQObjectData@@@@@@QEBAPEAVQObjectData@@XZ
_TEXT	SEGMENT
this$ = 8
??C?$QScopedPointer@VQObjectData@@U?$QScopedPointerDeleter@VQObjectData@@@@@@QEBAPEAVQObjectData@@XZ PROC ; QScopedPointer<QObjectData,QScopedPointerDeleter<QObjectData> >::operator->, COMDAT
; File e:\qt\5.12.3\msvc2015_64\include\qtcore\qscopedpointer.h
; Line 117
	mov	QWORD PTR [rsp+8], rcx
; Line 118
	mov	rax, QWORD PTR this$[rsp]
	mov	rax, QWORD PTR [rax]
; Line 119
	ret	0
??C?$QScopedPointer@VQObjectData@@U?$QScopedPointerDeleter@VQObjectData@@@@@@QEBAPEAVQObjectData@@XZ ENDP ; QScopedPointer<QObjectData,QScopedPointerDeleter<QObjectData> >::operator->
_TEXT	ENDS
; Function compile flags: /Odtp
;	COMDAT ?__empty_global_delete@@YAXPEAX_K@Z
_TEXT	SEGMENT
__formal$ = 8
__formal$ = 16
?__empty_global_delete@@YAXPEAX_K@Z PROC		; __empty_global_delete, COMDAT
; File c:\users\lx\desktop\moldmachine\moldmachine\moldmachine\x64\debug\moc\moc_imagesetting.cpp
; Line 140
	mov	QWORD PTR [rsp+16], rdx
	mov	QWORD PTR [rsp+8], rcx
	ret	0
?__empty_global_delete@@YAXPEAX_K@Z ENDP		; __empty_global_delete
_TEXT	ENDS
; Function compile flags: /Odtp
;	COMDAT ?__empty_global_delete@@YAXPEAX@Z
_TEXT	SEGMENT
__formal$ = 8
?__empty_global_delete@@YAXPEAX@Z PROC			; __empty_global_delete, COMDAT
; File c:\users\lx\desktop\moldmachine\moldmachine\moldmachine\x64\debug\moc\moc_imagesetting.cpp
; Line 140
	mov	QWORD PTR [rsp+8], rcx
	ret	0
?__empty_global_delete@@YAXPEAX@Z ENDP			; __empty_global_delete
_TEXT	ENDS
END
