; Listing generated by Microsoft (R) Optimizing Compiler Version 19.00.24215.1 

include listing.inc

INCLUDELIB MSVCRTD
INCLUDELIB OLDNAMES

PUBLIC	IID_IAxWinHostWindowLic
PUBLIC	IID_IAxWinAmbientDispatch
PUBLIC	?_pAtlModule@ATL@@3PEAVCAtlModule@1@EA		; ATL::_pAtlModule
PUBLIC	?szInvalidDateTime@ATL@@3QEB_WEB		; ATL::szInvalidDateTime
PUBLIC	?szInvalidDateTimeSpan@ATL@@3QEB_WEB		; ATL::szInvalidDateTimeSpan
PUBLIC	LIBID_ATLLib
PUBLIC	IID_IAxWinAmbientDispatchEx
PUBLIC	IID_IInternalConnection
PUBLIC	?_pModule@ATL@@3PEAVCComModule@1@EA		; ATL::_pModule
PUBLIC	__pobjMapEntryFirst
PUBLIC	__pobjMapEntryLast
PUBLIC	?_pPerfRegFunc@ATL@@3P6AJPEAUHINSTANCE__@@@ZEA	; ATL::_pPerfRegFunc
PUBLIC	?_pPerfUnRegFunc@ATL@@3P6AJXZEA			; ATL::_pPerfUnRegFunc
PUBLIC	?_AtlRegisterPerUser@ATL@@3_NA			; ATL::_AtlRegisterPerUser
PUBLIC	CLSID_Registrar
PUBLIC	IID_IRegistrar
PUBLIC	IID_IDocHostUIHandlerDispatch
PUBLIC	?chDirSep@ATL@@3_WB				; ATL::chDirSep
PUBLIC	?chRightBracket@ATL@@3_WB			; ATL::chRightBracket
PUBLIC	?chLeftBracket@ATL@@3_WB			; ATL::chLeftBracket
PUBLIC	?chQuote@ATL@@3_WB				; ATL::chQuote
PUBLIC	?chEquals@ATL@@3_WB				; ATL::chEquals
PUBLIC	?szStringVal@ATL@@3QEB_WEB			; ATL::szStringVal
PUBLIC	?multiszStringVal@ATL@@3QEB_WEB			; ATL::multiszStringVal
PUBLIC	?szDwordVal@ATL@@3QEB_WEB			; ATL::szDwordVal
PUBLIC	?szBinaryVal@ATL@@3QEB_WEB			; ATL::szBinaryVal
PUBLIC	?szValToken@ATL@@3QEB_WEB			; ATL::szValToken
PUBLIC	?szForceRemove@ATL@@3QEB_WEB			; ATL::szForceRemove
PUBLIC	?szNoRemove@ATL@@3QEB_WEB			; ATL::szNoRemove
PUBLIC	?szDelete@ATL@@3QEB_WEB				; ATL::szDelete
PUBLIC	?_pAtlAutoThreadModule@ATL@@3PEAUIAtlAutoThreadModule@1@EA ; ATL::_pAtlAutoThreadModule
PUBLIC	IID_IAxWinHostWindow
;	COMDAT ?_pAtlModule@ATL@@3PEAVCAtlModule@1@EA
_BSS	SEGMENT
?_pAtlModule@ATL@@3PEAVCAtlModule@1@EA DQ 01H DUP (?)	; ATL::_pAtlModule
_BSS	ENDS
;	COMDAT ?_pModule@ATL@@3PEAVCComModule@1@EA
_BSS	SEGMENT
?_pModule@ATL@@3PEAVCComModule@1@EA DQ 01H DUP (?)	; ATL::_pModule
_BSS	ENDS
;	COMDAT ?_pPerfRegFunc@ATL@@3P6AJPEAUHINSTANCE__@@@ZEA
_BSS	SEGMENT
?_pPerfRegFunc@ATL@@3P6AJPEAUHINSTANCE__@@@ZEA DQ 01H DUP (?) ; ATL::_pPerfRegFunc
_BSS	ENDS
;	COMDAT ?_pPerfUnRegFunc@ATL@@3P6AJXZEA
_BSS	SEGMENT
?_pPerfUnRegFunc@ATL@@3P6AJXZEA DQ 01H DUP (?)		; ATL::_pPerfUnRegFunc
_BSS	ENDS
;	COMDAT ?_AtlRegisterPerUser@ATL@@3_NA
_BSS	SEGMENT
?_AtlRegisterPerUser@ATL@@3_NA DB 01H DUP (?)		; ATL::_AtlRegisterPerUser
_BSS	ENDS
;	COMDAT ?_pAtlAutoThreadModule@ATL@@3PEAUIAtlAutoThreadModule@1@EA
_BSS	SEGMENT
?_pAtlAutoThreadModule@ATL@@3PEAUIAtlAutoThreadModule@1@EA DQ 01H DUP (?) ; ATL::_pAtlAutoThreadModule
_BSS	ENDS
;	COMDAT IID_IAxWinHostWindow
CONST	SEGMENT
IID_IAxWinHostWindow DD 0b6ea2050H
	DW	048aH
	DW	011d1H
	DB	082H
	DB	0b9H
	DB	00H
	DB	0c0H
	DB	04fH
	DB	0b9H
	DB	094H
	DB	02eH
CONST	ENDS
;	COMDAT ?szDelete@ATL@@3QEB_WEB
CONST	SEGMENT
?szDelete@ATL@@3QEB_WEB DQ FLAT:$SG283444		; ATL::szDelete
CONST	ENDS
;	COMDAT ?szNoRemove@ATL@@3QEB_WEB
CONST	SEGMENT
?szNoRemove@ATL@@3QEB_WEB DQ FLAT:$SG283442		; ATL::szNoRemove
CONST	ENDS
;	COMDAT ?szForceRemove@ATL@@3QEB_WEB
CONST	SEGMENT
?szForceRemove@ATL@@3QEB_WEB DQ FLAT:$SG283440		; ATL::szForceRemove
CONST	ENDS
;	COMDAT ?szValToken@ATL@@3QEB_WEB
CONST	SEGMENT
?szValToken@ATL@@3QEB_WEB DQ FLAT:$SG283438		; ATL::szValToken
CONST	ENDS
;	COMDAT ?szBinaryVal@ATL@@3QEB_WEB
CONST	SEGMENT
?szBinaryVal@ATL@@3QEB_WEB DQ FLAT:$SG283436		; ATL::szBinaryVal
CONST	ENDS
;	COMDAT ?szDwordVal@ATL@@3QEB_WEB
CONST	SEGMENT
?szDwordVal@ATL@@3QEB_WEB DQ FLAT:$SG283434		; ATL::szDwordVal
CONST	ENDS
;	COMDAT ?multiszStringVal@ATL@@3QEB_WEB
CONST	SEGMENT
?multiszStringVal@ATL@@3QEB_WEB DQ FLAT:$SG283432	; ATL::multiszStringVal
CONST	ENDS
;	COMDAT ?szStringVal@ATL@@3QEB_WEB
CONST	SEGMENT
?szStringVal@ATL@@3QEB_WEB DQ FLAT:$SG283430		; ATL::szStringVal
CONST	ENDS
;	COMDAT ?chEquals@ATL@@3_WB
CONST	SEGMENT
?chEquals@ATL@@3_WB DW 03dH				; ATL::chEquals
CONST	ENDS
;	COMDAT ?chQuote@ATL@@3_WB
CONST	SEGMENT
?chQuote@ATL@@3_WB DW 027H				; ATL::chQuote
CONST	ENDS
;	COMDAT ?chLeftBracket@ATL@@3_WB
CONST	SEGMENT
?chLeftBracket@ATL@@3_WB DW 07bH			; ATL::chLeftBracket
CONST	ENDS
;	COMDAT ?chRightBracket@ATL@@3_WB
CONST	SEGMENT
?chRightBracket@ATL@@3_WB DW 07dH			; ATL::chRightBracket
CONST	ENDS
;	COMDAT ?chDirSep@ATL@@3_WB
CONST	SEGMENT
?chDirSep@ATL@@3_WB DW 05cH				; ATL::chDirSep
CONST	ENDS
;	COMDAT IID_IDocHostUIHandlerDispatch
CONST	SEGMENT
IID_IDocHostUIHandlerDispatch DD 0425b5af0H
	DW	065f1H
	DW	011d1H
	DB	096H
	DB	011H
	DB	00H
	DB	00H
	DB	0f8H
	DB	01eH
	DB	0dH
	DB	0dH
CONST	ENDS
;	COMDAT IID_IRegistrar
CONST	SEGMENT
IID_IRegistrar DD 044ec053bH
	DW	0400fH
	DW	011d0H
	DB	09dH
	DB	0cdH
	DB	00H
	DB	0a0H
	DB	0c9H
	DB	03H
	DB	091H
	DB	0d3H
CONST	ENDS
;	COMDAT CLSID_Registrar
CONST	SEGMENT
CLSID_Registrar DD 044ec053aH
	DW	0400fH
	DW	011d0H
	DB	09dH
	DB	0cdH
	DB	00H
	DB	0a0H
	DB	0c9H
	DB	03H
	DB	091H
	DB	0d3H
CONST	ENDS
;	COMDAT __pobjMapEntryLast
ATL$__z	SEGMENT
__pobjMapEntryLast DQ 0000000000000000H
ATL$__z	ENDS
;	COMDAT __pobjMapEntryFirst
ATL$__a	SEGMENT
__pobjMapEntryFirst DQ 0000000000000000H
ATL$__a	ENDS
;	COMDAT IID_IInternalConnection
CONST	SEGMENT
IID_IInternalConnection DD 072ad0770H
	DW	06a9fH
	DW	011d1H
	DB	0bcH
	DB	0ecH
	DB	00H
	DB	060H
	DB	08H
	DB	08fH
	DB	044H
	DB	04eH
CONST	ENDS
;	COMDAT IID_IAxWinAmbientDispatchEx
CONST	SEGMENT
IID_IAxWinAmbientDispatchEx DD 0b2d0778bH
	DW	0ac99H
	DW	04c58H
	DB	0a5H
	DB	0c8H
	DB	0e7H
	DB	072H
	DB	04eH
	DB	053H
	DB	016H
	DB	0b5H
CONST	ENDS
;	COMDAT LIBID_ATLLib
CONST	SEGMENT
LIBID_ATLLib DD	044ec0535H
	DW	0400fH
	DW	011d0H
	DB	09dH
	DB	0cdH
	DB	00H
	DB	0a0H
	DB	0c9H
	DB	03H
	DB	091H
	DB	0d3H
CONST	ENDS
;	COMDAT ?szInvalidDateTimeSpan@ATL@@3QEB_WEB
CONST	SEGMENT
?szInvalidDateTimeSpan@ATL@@3QEB_WEB DQ FLAT:$SG296199	; ATL::szInvalidDateTimeSpan
CONST	ENDS
;	COMDAT ?szInvalidDateTime@ATL@@3QEB_WEB
CONST	SEGMENT
?szInvalidDateTime@ATL@@3QEB_WEB DQ FLAT:$SG296197	; ATL::szInvalidDateTime
CONST	ENDS
;	COMDAT IID_IAxWinAmbientDispatch
CONST	SEGMENT
IID_IAxWinAmbientDispatch DD 0b6ea2051H
	DW	048aH
	DW	011d1H
	DB	082H
	DB	0b9H
	DB	00H
	DB	0c0H
	DB	04fH
	DB	0b9H
	DB	094H
	DB	02eH
CONST	ENDS
;	COMDAT IID_IAxWinHostWindowLic
CONST	SEGMENT
IID_IAxWinHostWindowLic DD 03935bda8H
	DW	04ed9H
	DW	0495cH
	DB	086H
	DB	050H
	DB	0e0H
	DB	01fH
	DB	0c1H
	DB	0e3H
	DB	08aH
	DB	04bH
CONST	ENDS
CONST	SEGMENT
$SG373768 DB	'E:\Qt\5.12.3\msvc2015_64\include\QtCore/qmetatype.h', 00H
$SG244770 DB	'sec', 00H
$SG268319 DB	'a', 00H, 't', 00H, 'l', 00H, 'T', 00H, 'r', 00H, 'a', 00H
	DB	'c', 00H, 'e', 00H, 'R', 00H, 'e', 00H, 'f', 00H, 'c', 00H, 'o'
	DB	00H, 'u', 00H, 'n', 00H, 't', 00H, 00H, 00H
	ORG $+6
$SG373769 DB	'qRegisterNormalizedMetaType was called with a not normal'
	DB	'ized type name, please call qRegisterMetaType instead.', 00H
	ORG $+1
$SG373770 DB	'qRegisterNormalizedMetaType', 00H
$SG283430 DB	'S', 00H, 00H, 00H
$SG244791 DB	'D:\Opencv\opencv\build\include\opencv2/core/utility.hpp', 00H
$SG244792 DB	'cv::alignSize', 00H
	ORG $+2
$SG244793 DB	'(n & (n - 1)) == 0', 00H
	ORG $+1
$SG283432 DB	'M', 00H, 00H, 00H
$SG244804 DB	'D:\Opencv\opencv\build\include\opencv2/core/utility.hpp', 00H
$SG244805 DB	'cv::divUp', 00H
	ORG $+2
$SG244806 DB	'a >= 0', 00H
	ORG $+1
$SG283434 DB	'D', 00H, 00H, 00H
$SG268368 DB	'a', 00H, 't', 00H, 'l', 00H, 'T', 00H, 'r', 00H, 'a', 00H
	DB	'c', 00H, 'e', 00H, 'W', 00H, 'i', 00H, 'n', 00H, 'd', 00H, 'o'
	DB	00H, 'w', 00H, 'i', 00H, 'n', 00H, 'g', 00H, 00H, 00H
$SG283436 DB	'B', 00H, 00H, 00H
$SG244822 DB	'D:\Opencv\opencv\build\include\opencv2/core/utility.hpp', 00H
$SG244823 DB	'cv::roundUp', 00H
$SG244824 DB	'a >= 0', 00H
	ORG $+1
$SG244606 DB	' x ', 00H
$SG268417 DB	'a', 00H, 't', 00H, 'l', 00H, 'T', 00H, 'r', 00H, 'a', 00H
	DB	'c', 00H, 'e', 00H, 'C', 00H, 'o', 00H, 'n', 00H, 't', 00H, 'r'
	DB	00H, 'o', 00H, 'l', 00H, 's', 00H, 00H, 00H
	ORG $+2
$SG244634 DB	')', 00H
	ORG $+2
$SG371851 DB	'E:\Qt\5.12.3\msvc2015_64\include\QtCore/qmetatype.h', 00H
$SG246589 DB	'cvMat', 00H
	ORG $+6
$SG371852 DB	'qRegisterNormalizedMetaType was called with a not normal'
	DB	'ized type name, please call qRegisterMetaType instead.', 00H
	ORG $+1
$SG371853 DB	'qRegisterNormalizedMetaType', 00H
$SG244635 DB	' : ', 00H
$SG378019 DB	'E:\Qt\5.12.3\msvc2015_64\include\QtCore/qmetatype.h', 00H
$SG244636 DB	'[', 00H
	ORG $+2
$SG268466 DB	'a', 00H, 't', 00H, 'l', 00H, 'T', 00H, 'r', 00H, 'a', 00H
	DB	'c', 00H, 'e', 00H, 'H', 00H, 'o', 00H, 's', 00H, 't', 00H, 'i'
	DB	00H, 'n', 00H, 'g', 00H, 00H, 00H
$SG285909 DB	'l', 00H, 'p', 00H, 's', 00H, 'z', 00H, 'P', 00H, 'a', 00H
	DB	't', 00H, 'h', 00H, 'N', 00H, 'a', 00H, 'm', 00H, 'e', 00H, ' '
	DB	00H, '!', 00H, '=', 00H, ' ', 00H, '0', 00H, 00H, 00H
	ORG $+4
$SG378020 DB	'qRegisterNormalizedMetaType was called with a not normal'
	DB	'ized type name, please call qRegisterMetaType instead.', 00H
	ORG $+1
$SG378021 DB	'qRegisterNormalizedMetaType', 00H
	ORG $+4
$SG285910 DB	'%', 00H, 'l', 00H, 's', 00H, 00H, 00H
$SG268515 DB	'a', 00H, 't', 00H, 'l', 00H, 'T', 00H, 'r', 00H, 'a', 00H
	DB	'c', 00H, 'e', 00H, 'D', 00H, 'B', 00H, 'C', 00H, 'l', 00H, 'i'
	DB	00H, 'e', 00H, 'n', 00H, 't', 00H, 00H, 00H
	ORG $+6
$SG285911 DB	'D', 00H, ':', 00H, '\', 00H, 'V', 00H, 'i', 00H, 's', 00H
	DB	'u', 00H, 'a', 00H, 'l', 00H, ' ', 00H, 'S', 00H, 't', 00H, 'u'
	DB	00H, 'd', 00H, 'i', 00H, 'o', 00H, '\', 00H, 'V', 00H, 'C', 00H
	DB	'\', 00H, 'a', 00H, 't', 00H, 'l', 00H, 'm', 00H, 'f', 00H, 'c'
	DB	00H, '\', 00H, 'i', 00H, 'n', 00H, 'c', 00H, 'l', 00H, 'u', 00H
	DB	'd', 00H, 'e', 00H, '\', 00H, 'a', 00H, 't', 00H, 'l', 00H, 'b'
	DB	00H, 'a', 00H, 's', 00H, 'e', 00H, '.', 00H, 'h', 00H, 00H, 00H
	ORG $+6
?qt_meta_stringdata_MoldMachine@@3Uqt_meta_stringdata_MoldMachine_t@@B DD 0ffffffffH ; qt_meta_stringdata_MoldMachine
	DD	0bH
	DD	00H
	ORG $+4
	DQ	00000000000001f8H
	DD	0ffffffffH
	DD	0eH
	DD	00H
	ORG $+4
	DQ	00000000000001ecH
	DD	0ffffffffH
	DD	00H
	DD	00H
	ORG $+4
	DQ	00000000000001e3H
	DD	0ffffffffH
	DD	0dH
	DD	00H
	ORG $+4
	DQ	00000000000001ccH
	DD	0ffffffffH
	DD	0cH
	DD	00H
	ORG $+4
	DQ	00000000000001c2H
	DD	0ffffffffH
	DD	011H
	DD	00H
	ORG $+4
	DQ	00000000000001b7H
	DD	0ffffffffH
	DD	010H
	DD	00H
	ORG $+4
	DQ	00000000000001b1H
	DD	0ffffffffH
	DD	0eH
	DD	00H
	ORG $+4
	DQ	00000000000001aaH
	DD	0ffffffffH
	DD	0cH
	DD	00H
	ORG $+4
	DQ	00000000000001a1H
	DD	0ffffffffH
	DD	0aH
	DD	00H
	ORG $+4
	DQ	0000000000000196H
	DD	0ffffffffH
	DD	09H
	DD	00H
	ORG $+4
	DQ	0000000000000189H
	DD	0ffffffffH
	DD	011H
	DD	00H
	ORG $+4
	DQ	000000000000017bH
	DD	0ffffffffH
	DD	06H
	DD	00H
	ORG $+4
	DQ	0000000000000175H
	DD	0ffffffffH
	DD	07H
	DD	00H
	ORG $+4
	DQ	0000000000000164H
	DD	0ffffffffH
	DD	0eH
	DD	00H
	ORG $+4
	DQ	0000000000000154H
	DD	0ffffffffH
	DD	0bH
	DD	00H
	ORG $+4
	DQ	000000000000014bH
	DD	0ffffffffH
	DD	05H
	DD	00H
	ORG $+4
	DQ	000000000000013fH
	DD	0ffffffffH
	DD	0dH
	DD	00H
	ORG $+4
	DQ	000000000000012dH
	DD	0ffffffffH
	DD	04H
	DD	00H
	ORG $+4
	DQ	0000000000000123H
	DD	0ffffffffH
	DD	05H
	DD	00H
	ORG $+4
	DQ	0000000000000110H
	DD	0ffffffffH
	DD	05H
	DD	00H
	ORG $+4
	DQ	00000000000000feH
	DB	'MoldMachine', 00H, 'saveConfig2XML', 00H, 00H, 'ENetIOSe'
	DB	'tting', 00H, 'imageSetting', 00H, 'cycleTimesSetting', 00H, 'c'
	DB	'ycleStepSetting', 00H, 'counterSetting', 00H, 'delaySetting', 00H
	DB	'dataSource', 00H, 'aboutHelp', 00H, 'dealDataSrcChosen', 00H, 'r'
	DB	'unAll', 00H, 'stopAll', 00H, 'dealThreadDone', 00H, 'dealGrab'
	DB	'Img', 00H, 'dstIO', 00H, 'dealExcuteImg', 00H, 'mode', 00H, 'a'
	DB	'ddr1', 00H, 'addr2', 00H
	ORG $+4
$SG296197 DB	'I', 00H, 'n', 00H, 'v', 00H, 'a', 00H, 'l', 00H, 'i', 00H
	DB	'd', 00H, ' ', 00H, 'D', 00H, 'a', 00H, 't', 00H, 'e', 00H, 'T'
	DB	00H, 'i', 00H, 'm', 00H, 'e', 00H, 00H, 00H
	ORG $+6
$SG296199 DB	'I', 00H, 'n', 00H, 'v', 00H, 'a', 00H, 'l', 00H, 'i', 00H
	DB	'd', 00H, ' ', 00H, 'D', 00H, 'a', 00H, 't', 00H, 'e', 00H, 'T'
	DB	00H, 'i', 00H, 'm', 00H, 'e', 00H, 'S', 00H, 'p', 00H, 'a', 00H
	DB	'n', 00H, 00H, 00H
	ORG $+6
$SG268564 DB	'a', 00H, 't', 00H, 'l', 00H, 'T', 00H, 'r', 00H, 'a', 00H
	DB	'c', 00H, 'e', 00H, 'D', 00H, 'B', 00H, 'P', 00H, 'r', 00H, 'o'
	DB	00H, 'v', 00H, 'i', 00H, 'd', 00H, 'e', 00H, 'r', 00H, 00H, 00H
	ORG $+2
$SG373082 DB	'E:\Qt\5.12.3\msvc2015_64\include\QtCore/qmetatype.h', 00H
	ORG $+4
?qt_meta_data_MoldMachine@@3QBIB DD 08H			; qt_meta_data_MoldMachine
	DD	00H
	DD	00H
	DD	00H
	DD	0fH
	DD	0eH
	DD	00H
	DD	00H
	DD	00H
	DD	00H
	DD	00H
	DD	00H
	DD	00H
	DD	00H
	DD	01H
	DD	00H
	DD	059H
	DD	02H
	DD	08H
	DD	03H
	DD	00H
	DD	05aH
	DD	02H
	DD	08H
	DD	04H
	DD	00H
	DD	05bH
	DD	02H
	DD	08H
	DD	05H
	DD	00H
	DD	05cH
	DD	02H
	DD	08H
	DD	06H
	DD	00H
	DD	05dH
	DD	02H
	DD	08H
	DD	07H
	DD	00H
	DD	05eH
	DD	02H
	DD	08H
	DD	08H
	DD	00H
	DD	05fH
	DD	02H
	DD	08H
	DD	09H
	DD	00H
	DD	060H
	DD	02H
	DD	08H
	DD	0aH
	DD	00H
	DD	061H
	DD	02H
	DD	08H
	DD	0bH
	DD	01H
	DD	062H
	DD	02H
	DD	08H
	DD	0cH
	DD	00H
	DD	065H
	DD	02H
	DD	08H
	DD	0dH
	DD	00H
	DD	066H
	DD	02H
	DD	08H
	DD	0eH
	DD	00H
	DD	067H
	DD	02H
	DD	08H
	DD	0fH
	DD	01H
	DD	068H
	DD	02H
	DD	08H
	DD	011H
	DD	03H
	DD	06bH
	DD	02H
	DD	08H
	DD	02bH
	DD	02bH
	DD	02bH
	DD	02bH
	DD	02bH
	DD	02bH
	DD	02bH
	DD	02bH
	DD	02bH
	DD	02bH
	DD	02H
	DD	02H
	DD	02bH
	DD	02bH
	DD	02bH
	DD	02bH
	DD	02H
	DD	010H
	DD	02bH
	DD	02H
	DD	0aH
	DD	0aH
	DD	012H
	DD	013H
	DD	014H
	DD	00H
	ORG $+4
$SG268613 DB	'a', 00H, 't', 00H, 'l', 00H, 'T', 00H, 'r', 00H, 'a', 00H
	DB	'c', 00H, 'e', 00H, 'S', 00H, 'n', 00H, 'a', 00H, 'p', 00H, 'i'
	DB	00H, 'n', 00H, 00H, 00H
	ORG $+2
$SG373083 DB	'qRegisterNormalizedMetaType was called with a not normal'
	DB	'ized type name, please call qRegisterMetaType instead.', 00H
	ORG $+1
$SG373084 DB	'qRegisterNormalizedMetaType', 00H
	ORG $+4
$SG377192 DB	'_', 00H, 'T', 00H, 'a', 00H, 's', 00H, 'k', 00H, '.', 00H
	DB	'_', 00H, 'G', 00H, 'e', 00H, 't', 00H, 'I', 00H, 'm', 00H, 'p'
	DB	00H, 'l', 00H, '(', 00H, ')', 00H, '-', 00H, '>', 00H, '_', 00H
	DB	'I', 00H, 's', 00H, 'C', 00H, 'a', 00H, 'n', 00H, 'c', 00H, 'e'
	DB	00H, 'l', 00H, 'e', 00H, 'd', 00H, '(', 00H, ')', 00H, 00H, 00H
$SG377193 DB	'%', 00H, 'l', 00H, 's', 00H, 00H, 00H
$SG268711 DB	'a', 00H, 't', 00H, 'l', 00H, 'T', 00H, 'r', 00H, 'a', 00H
	DB	'c', 00H, 'e', 00H, 'A', 00H, 'l', 00H, 'l', 00H, 'o', 00H, 'c'
	DB	00H, 'a', 00H, 't', 00H, 'i', 00H, 'o', 00H, 'n', 00H, 00H, 00H
	ORG $+2
$SG377194 DB	'D', 00H, ':', 00H, '\', 00H, 'V', 00H, 'i', 00H, 's', 00H
	DB	'u', 00H, 'a', 00H, 'l', 00H, ' ', 00H, 'S', 00H, 't', 00H, 'u'
	DB	00H, 'd', 00H, 'i', 00H, 'o', 00H, '\', 00H, 'V', 00H, 'C', 00H
	DB	'\', 00H, 'i', 00H, 'n', 00H, 'c', 00H, 'l', 00H, 'u', 00H, 'd'
	DB	00H, 'e', 00H, '\', 00H, 'p', 00H, 'p', 00H, 'l', 00H, 't', 00H
	DB	'a', 00H, 's', 00H, 'k', 00H, 's', 00H, '.', 00H, 'h', 00H, 00H
	DB	00H
	ORG $+2
$SG268662 DB	'a', 00H, 't', 00H, 'l', 00H, 'T', 00H, 'r', 00H, 'a', 00H
	DB	'c', 00H, 'e', 00H, 'N', 00H, 'o', 00H, 't', 00H, 'I', 00H, 'm'
	DB	00H, 'p', 00H, 'l', 00H, 00H, 00H
$SG372173 DB	'E:\Qt\5.12.3\msvc2015_64\include\QtCore/qmetatype.h', 00H
	ORG $+4
$SG268760 DB	'a', 00H, 't', 00H, 'l', 00H, 'T', 00H, 'r', 00H, 'a', 00H
	DB	'c', 00H, 'e', 00H, 'E', 00H, 'x', 00H, 'c', 00H, 'e', 00H, 'p'
	DB	00H, 't', 00H, 'i', 00H, 'o', 00H, 'n', 00H, 00H, 00H
	ORG $+4
$SG372174 DB	'qRegisterNormalizedMetaType was called with a not normal'
	DB	'ized type name, please call qRegisterMetaType instead.', 00H
	ORG $+1
$SG372175 DB	'qRegisterNormalizedMetaType', 00H
	ORG $+4
$SG374273 DB	'E:\Qt\5.12.3\msvc2015_64\include\QtCore/qmetatype.h', 00H
	ORG $+4
$SG268907 DB	'a', 00H, 't', 00H, 'l', 00H, 'T', 00H, 'r', 00H, 'a', 00H
	DB	'c', 00H, 'e', 00H, 'S', 00H, 't', 00H, 'e', 00H, 'n', 00H, 'c'
	DB	00H, 'i', 00H, 'l', 00H, 00H, 00H
$SG357054 DB	'%', 00H, 'l', 00H, 's', 00H, 00H, 00H
$SG374274 DB	'qRegisterNormalizedMetaType was called with a not normal'
	DB	'ized type name, please call qRegisterMetaType instead.', 00H
	ORG $+1
$SG374275 DB	'qRegisterNormalizedMetaType', 00H
	ORG $+4
$SG268809 DB	'a', 00H, 't', 00H, 'l', 00H, 'T', 00H, 'r', 00H, 'a', 00H
	DB	'c', 00H, 'e', 00H, 'T', 00H, 'i', 00H, 'm', 00H, 'e', 00H, 00H
	DB	00H
	ORG $+6
$SG268858 DB	'a', 00H, 't', 00H, 'l', 00H, 'T', 00H, 'r', 00H, 'a', 00H
	DB	'c', 00H, 'e', 00H, 'C', 00H, 'a', 00H, 'c', 00H, 'h', 00H, 'e'
	DB	00H, 00H, 00H
	ORG $+4
$SG268956 DB	'a', 00H, 't', 00H, 'l', 00H, 'T', 00H, 'r', 00H, 'a', 00H
	DB	'c', 00H, 'e', 00H, 'S', 00H, 't', 00H, 'r', 00H, 'i', 00H, 'n'
	DB	00H, 'g', 00H, 00H, 00H
	ORG $+2
$SG357053 DB	'_', 00H, 'T', 00H, 'a', 00H, 's', 00H, 'k', 00H, '.', 00H
	DB	'_', 00H, 'G', 00H, 'e', 00H, 't', 00H, 'I', 00H, 'm', 00H, 'p'
	DB	00H, 'l', 00H, '(', 00H, ')', 00H, '-', 00H, '>', 00H, '_', 00H
	DB	'I', 00H, 's', 00H, 'C', 00H, 'a', 00H, 'n', 00H, 'c', 00H, 'e'
	DB	00H, 'l', 00H, 'e', 00H, 'd', 00H, '(', 00H, ')', 00H, ' ', 00H
	DB	'|', 00H, '|', 00H, ' ', 00H, '_', 00H, 'I', 00H, 's', 00H, 'T'
	DB	00H, 'o', 00H, 'k', 00H, 'e', 00H, 'n', 00H, 'C', 00H, 'a', 00H
	DB	'n', 00H, 'c', 00H, 'e', 00H, 'l', 00H, 'e', 00H, 'd', 00H, 00H
	DB	00H
$SG357061 DB	'%', 00H, 'l', 00H, 's', 00H, 00H, 00H
$SG357055 DB	'D', 00H, ':', 00H, '\', 00H, 'V', 00H, 'i', 00H, 's', 00H
	DB	'u', 00H, 'a', 00H, 'l', 00H, ' ', 00H, 'S', 00H, 't', 00H, 'u'
	DB	00H, 'd', 00H, 'i', 00H, 'o', 00H, '\', 00H, 'V', 00H, 'C', 00H
	DB	'\', 00H, 'i', 00H, 'n', 00H, 'c', 00H, 'l', 00H, 'u', 00H, 'd'
	DB	00H, 'e', 00H, '\', 00H, 'p', 00H, 'p', 00H, 'l', 00H, 't', 00H
	DB	'a', 00H, 's', 00H, 'k', 00H, 's', 00H, '.', 00H, 'h', 00H, 00H
	DB	00H
	ORG $+2
$SG357060 DB	'_', 00H, 'P', 00H, 'P', 00H, 'a', 00H, 'r', 00H, 'a', 00H
	DB	'm', 00H, '-', 00H, '>', 00H, '_', 00H, 'M', 00H, '_', 00H, 'e'
	DB	00H, 'x', 00H, 'c', 00H, 'e', 00H, 'p', 00H, 't', 00H, 'i', 00H
	DB	'o', 00H, 'n', 00H, 'R', 00H, 'e', 00H, 'l', 00H, 'a', 00H, 't'
	DB	00H, 'e', 00H, 'd', 00H, 'T', 00H, 'o', 00H, 'k', 00H, 'e', 00H
	DB	'n', 00H, 00H, 00H
	ORG $+4
$SG373446 DB	'E:\Qt\5.12.3\msvc2015_64\include\QtCore/qmetatype.h', 00H
	ORG $+4
$SG357062 DB	'D', 00H, ':', 00H, '\', 00H, 'V', 00H, 'i', 00H, 's', 00H
	DB	'u', 00H, 'a', 00H, 'l', 00H, ' ', 00H, 'S', 00H, 't', 00H, 'u'
	DB	00H, 'd', 00H, 'i', 00H, 'o', 00H, '\', 00H, 'V', 00H, 'C', 00H
	DB	'\', 00H, 'i', 00H, 'n', 00H, 'c', 00H, 'l', 00H, 'u', 00H, 'd'
	DB	00H, 'e', 00H, '\', 00H, 'p', 00H, 'p', 00H, 'l', 00H, 't', 00H
	DB	'a', 00H, 's', 00H, 'k', 00H, 's', 00H, '.', 00H, 'h', 00H, 00H
	DB	00H
	ORG $+2
$SG373447 DB	'qRegisterNormalizedMetaType was called with a not normal'
	DB	'ized type name, please call qRegisterMetaType instead.', 00H
	ORG $+1
$SG373448 DB	'qRegisterNormalizedMetaType', 00H
	ORG $+4
$SG269005 DB	'a', 00H, 't', 00H, 'l', 00H, 'T', 00H, 'r', 00H, 'a', 00H
	DB	'c', 00H, 'e', 00H, 'M', 00H, 'a', 00H, 'p', 00H, 00H, 00H
$SG269010 DB	'a', 00H, 't', 00H, 'l', 00H, 'T', 00H, 'r', 00H, 'a', 00H
	DB	'c', 00H, 'e', 00H, 'U', 00H, 't', 00H, 'i', 00H, 'l', 00H, 00H
	DB	00H
	ORG $+6
$SG269059 DB	'a', 00H, 't', 00H, 'l', 00H, 'T', 00H, 'r', 00H, 'a', 00H
	DB	'c', 00H, 'e', 00H, 'S', 00H, 'e', 00H, 'c', 00H, 'u', 00H, 'r'
	DB	00H, 'i', 00H, 't', 00H, 'y', 00H, 00H, 00H
	ORG $+6
$SG284441 DB	'A', 00H, 'p', 00H, 'p', 00H, 'I', 00H, 'D', 00H, 00H, 00H
	ORG $+4
$SG284442 DB	'C', 00H, 'L', 00H, 'S', 00H, 'I', 00H, 'D', 00H, 00H, 00H
	ORG $+4
$SG284443 DB	'C', 00H, 'o', 00H, 'm', 00H, 'p', 00H, 'o', 00H, 'n', 00H
	DB	'e', 00H, 'n', 00H, 't', 00H, ' ', 00H, 'C', 00H, 'a', 00H, 't'
	DB	00H, 'e', 00H, 'g', 00H, 'o', 00H, 'r', 00H, 'i', 00H, 'e', 00H
	DB	's', 00H, 00H, 00H
	ORG $+6
$SG284444 DB	'F', 00H, 'i', 00H, 'l', 00H, 'e', 00H, 'T', 00H, 'y', 00H
	DB	'p', 00H, 'e', 00H, 00H, 00H
	ORG $+6
$SG284445 DB	'I', 00H, 'n', 00H, 't', 00H, 'e', 00H, 'r', 00H, 'f', 00H
	DB	'a', 00H, 'c', 00H, 'e', 00H, 00H, 00H
	ORG $+4
$SG284446 DB	'H', 00H, 'a', 00H, 'r', 00H, 'd', 00H, 'w', 00H, 'a', 00H
	DB	'r', 00H, 'e', 00H, 00H, 00H
	ORG $+6
$SG284447 DB	'M', 00H, 'i', 00H, 'm', 00H, 'e', 00H, 00H, 00H
	ORG $+6
$SG284448 DB	'S', 00H, 'A', 00H, 'M', 00H, 00H, 00H
$SG284449 DB	'S', 00H, 'E', 00H, 'C', 00H, 'U', 00H, 'R', 00H, 'I', 00H
	DB	'T', 00H, 'Y', 00H, 00H, 00H
	ORG $+6
$SG284450 DB	'S', 00H, 'Y', 00H, 'S', 00H, 'T', 00H, 'E', 00H, 'M', 00H
	DB	00H, 00H
	ORG $+2
$SG284451 DB	'S', 00H, 'o', 00H, 'f', 00H, 't', 00H, 'w', 00H, 'a', 00H
	DB	'r', 00H, 'e', 00H, 00H, 00H
	ORG $+6
$SG284452 DB	'T', 00H, 'y', 00H, 'p', 00H, 'e', 00H, 'L', 00H, 'i', 00H
	DB	'b', 00H, 00H, 00H
$SG248620 DB	'D', 00H, ':', 00H, '\', 00H, 'O', 00H, 'p', 00H, 'e', 00H
	DB	'n', 00H, 'c', 00H, 'v', 00H, '\', 00H, 'o', 00H, 'p', 00H, 'e'
	DB	00H, 'n', 00H, 'c', 00H, 'v', 00H, '\', 00H, 'b', 00H, 'u', 00H
	DB	'i', 00H, 'l', 00H, 'd', 00H, '\', 00H, 'i', 00H, 'n', 00H, 'c'
	DB	00H, 'l', 00H, 'u', 00H, 'd', 00H, 'e', 00H, '\', 00H, 'o', 00H
	DB	'p', 00H, 'e', 00H, 'n', 00H, 'c', 00H, 'v', 00H, '2', 00H, '/'
	DB	00H, 'c', 00H, 'o', 00H, 'r', 00H, 'e', 00H, '/', 00H, 'c', 00H
	DB	'o', 00H, 'r', 00H, 'e', 00H, '_', 00H, 'c', 00H, '.', 00H, 'h'
	DB	00H, 00H, 00H
	ORG $+6
$SG248621 DB	'_', 00H, 'e', 00H, 'l', 00H, 'e', 00H, 'm', 00H, '-', 00H
	DB	'>', 00H, 'f', 00H, 'l', 00H, 'a', 00H, 'g', 00H, 's', 00H, ' '
	DB	00H, '>', 00H, '=', 00H, ' ', 00H, '0', 00H, 00H, 00H
	ORG $+4
$SG283438 DB	'V', 00H, 'a', 00H, 'l', 00H, 00H, 00H
$SG246573 DB	'D', 00H, ':', 00H, '\', 00H, 'O', 00H, 'p', 00H, 'e', 00H
	DB	'n', 00H, 'c', 00H, 'v', 00H, '\', 00H, 'o', 00H, 'p', 00H, 'e'
	DB	00H, 'n', 00H, 'c', 00H, 'v', 00H, '\', 00H, 'b', 00H, 'u', 00H
	DB	'i', 00H, 'l', 00H, 'd', 00H, '\', 00H, 'i', 00H, 'n', 00H, 'c'
	DB	00H, 'l', 00H, 'u', 00H, 'd', 00H, 'e', 00H, '\', 00H, 'o', 00H
	DB	'p', 00H, 'e', 00H, 'n', 00H, 'c', 00H, 'v', 00H, '2', 00H, '/'
	DB	00H, 'c', 00H, 'o', 00H, 'r', 00H, 'e', 00H, '/', 00H, 't', 00H
	DB	'y', 00H, 'p', 00H, 'e', 00H, 's', 00H, '_', 00H, 'c', 00H, '.'
	DB	00H, 'h', 00H, 00H, 00H
	ORG $+4
$SG246574 DB	'(', 00H, 'u', 00H, 'n', 00H, 's', 00H, 'i', 00H, 'g', 00H
	DB	'n', 00H, 'e', 00H, 'd', 00H, ')', 00H, 'C', 00H, 'V', 00H, '_'
	DB	00H, 'M', 00H, 'A', 00H, 'T', 00H, '_', 00H, 'D', 00H, 'E', 00H
	DB	'P', 00H, 'T', 00H, 'H', 00H, '(', 00H, 't', 00H, 'y', 00H, 'p'
	DB	00H, 'e', 00H, ')', 00H, ' ', 00H, '<', 00H, '=', 00H, ' ', 00H
	DB	'C', 00H, 'V', 00H, '_', 00H, '6', 00H, '4', 00H, 'F', 00H, 00H
	DB	00H
	ORG $+2
$SG283440 DB	'F', 00H, 'o', 00H, 'r', 00H, 'c', 00H, 'e', 00H, 'R', 00H
	DB	'e', 00H, 'm', 00H, 'o', 00H, 'v', 00H, 'e', 00H, 00H, 00H
$SG283442 DB	'N', 00H, 'o', 00H, 'R', 00H, 'e', 00H, 'm', 00H, 'o', 00H
	DB	'v', 00H, 'e', 00H, 00H, 00H
	ORG $+6
$SG283444 DB	'D', 00H, 'e', 00H, 'l', 00H, 'e', 00H, 't', 00H, 'e', 00H
	DB	00H, 00H
	ORG $+2
$SG269108 DB	'a', 00H, 't', 00H, 'l', 00H, 'T', 00H, 'r', 00H, 'a', 00H
	DB	'c', 00H, 'e', 00H, 'S', 00H, 'y', 00H, 'n', 00H, 'c', 00H, 00H
	DB	00H
	ORG $+6
$SG246588 DB	'D:\Opencv\opencv\build\include\opencv2/core/types_c.h', 00H
	ORG $+2
$SG246590 DB	'm.dims <= 2', 00H
	ORG $+4
$SG374595 DB	'E:\Qt\5.12.3\msvc2015_64\include\QtCore/qmetatype.h', 00H
	ORG $+4
$SG268099 DB	'a', 00H, 't', 00H, 'l', 00H, 'T', 00H, 'r', 00H, 'a', 00H
	DB	'c', 00H, 'e', 00H, 'G', 00H, 'e', 00H, 'n', 00H, 'e', 00H, 'r'
	DB	00H, 'a', 00H, 'l', 00H, 00H, 00H
$SG374596 DB	'qRegisterNormalizedMetaType was called with a not normal'
	DB	'ized type name, please call qRegisterMetaType instead.', 00H
	ORG $+1
$SG374597 DB	'qRegisterNormalizedMetaType', 00H
	ORG $+4
$SG371529 DB	'E:\Qt\5.12.3\msvc2015_64\include\QtCore/qmetatype.h', 00H
	ORG $+4
$SG246627 DB	't', 00H, 'y', 00H, 'p', 00H, 'e', 00H, ' ', 00H, '=', 00H
	DB	'=', 00H, ' ', 00H, 'C', 00H, 'V', 00H, '_', 00H, '6', 00H, '4'
	DB	00H, 'F', 00H, 'C', 00H, '1', 00H, 00H, 00H
	ORG $+6
$SG371530 DB	'qRegisterNormalizedMetaType was called with a not normal'
	DB	'ized type name, please call qRegisterMetaType instead.', 00H
	ORG $+1
$SG371531 DB	'qRegisterNormalizedMetaType', 00H
	ORG $+4
$SG246622 DB	'D', 00H, ':', 00H, '\', 00H, 'O', 00H, 'p', 00H, 'e', 00H
	DB	'n', 00H, 'c', 00H, 'v', 00H, '\', 00H, 'o', 00H, 'p', 00H, 'e'
	DB	00H, 'n', 00H, 'c', 00H, 'v', 00H, '\', 00H, 'b', 00H, 'u', 00H
	DB	'i', 00H, 'l', 00H, 'd', 00H, '\', 00H, 'i', 00H, 'n', 00H, 'c'
	DB	00H, 'l', 00H, 'u', 00H, 'd', 00H, 'e', 00H, '\', 00H, 'o', 00H
	DB	'p', 00H, 'e', 00H, 'n', 00H, 'c', 00H, 'v', 00H, '2', 00H, '/'
	DB	00H, 'c', 00H, 'o', 00H, 'r', 00H, 'e', 00H, '/', 00H, 't', 00H
	DB	'y', 00H, 'p', 00H, 'e', 00H, 's', 00H, '_', 00H, 'c', 00H, '.'
	DB	00H, 'h', 00H, 00H, 00H
	ORG $+4
$SG246623 DB	'(', 00H, 'u', 00H, 'n', 00H, 's', 00H, 'i', 00H, 'g', 00H
	DB	'n', 00H, 'e', 00H, 'd', 00H, ')', 00H, 'r', 00H, 'o', 00H, 'w'
	DB	00H, ' ', 00H, '<', 00H, ' ', 00H, '(', 00H, 'u', 00H, 'n', 00H
	DB	's', 00H, 'i', 00H, 'g', 00H, 'n', 00H, 'e', 00H, 'd', 00H, ')'
	DB	00H, 'm', 00H, 'a', 00H, 't', 00H, '-', 00H, '>', 00H, 'r', 00H
	DB	'o', 00H, 'w', 00H, 's', 00H, ' ', 00H, '&', 00H, '&', 00H, ' '
	DB	00H, '(', 00H, 'u', 00H, 'n', 00H, 's', 00H, 'i', 00H, 'g', 00H
	DB	'n', 00H, 'e', 00H, 'd', 00H, ')', 00H, 'c', 00H, 'o', 00H, 'l'
	DB	00H, ' ', 00H, '<', 00H, ' ', 00H, '(', 00H, 'u', 00H, 'n', 00H
	DB	's', 00H, 'i', 00H, 'g', 00H, 'n', 00H, 'e', 00H, 'd', 00H, ')'
	DB	00H, 'm', 00H, 'a', 00H, 't', 00H, '-', 00H, '>', 00H, 'c', 00H
	DB	'o', 00H, 'l', 00H, 's', 00H, 00H, 00H
	ORG $+2
$SG246655 DB	't', 00H, 'y', 00H, 'p', 00H, 'e', 00H, ' ', 00H, '=', 00H
	DB	'=', 00H, ' ', 00H, 'C', 00H, 'V', 00H, '_', 00H, '6', 00H, '4'
	DB	00H, 'F', 00H, 'C', 00H, '1', 00H, 00H, 00H
	ORG $+6
$SG246626 DB	'D', 00H, ':', 00H, '\', 00H, 'O', 00H, 'p', 00H, 'e', 00H
	DB	'n', 00H, 'c', 00H, 'v', 00H, '\', 00H, 'o', 00H, 'p', 00H, 'e'
	DB	00H, 'n', 00H, 'c', 00H, 'v', 00H, '\', 00H, 'b', 00H, 'u', 00H
	DB	'i', 00H, 'l', 00H, 'd', 00H, '\', 00H, 'i', 00H, 'n', 00H, 'c'
	DB	00H, 'l', 00H, 'u', 00H, 'd', 00H, 'e', 00H, '\', 00H, 'o', 00H
	DB	'p', 00H, 'e', 00H, 'n', 00H, 'c', 00H, 'v', 00H, '2', 00H, '/'
	DB	00H, 'c', 00H, 'o', 00H, 'r', 00H, 'e', 00H, '/', 00H, 't', 00H
	DB	'y', 00H, 'p', 00H, 'e', 00H, 's', 00H, '_', 00H, 'c', 00H, '.'
	DB	00H, 'h', 00H, 00H, 00H
	ORG $+4
$SG269157 DB	'a', 00H, 't', 00H, 'l', 00H, 'T', 00H, 'r', 00H, 'a', 00H
	DB	'c', 00H, 'e', 00H, 'I', 00H, 'S', 00H, 'A', 00H, 'P', 00H, 'I'
	DB	00H, 00H, 00H
	ORG $+4
$SG246650 DB	'D', 00H, ':', 00H, '\', 00H, 'O', 00H, 'p', 00H, 'e', 00H
	DB	'n', 00H, 'c', 00H, 'v', 00H, '\', 00H, 'o', 00H, 'p', 00H, 'e'
	DB	00H, 'n', 00H, 'c', 00H, 'v', 00H, '\', 00H, 'b', 00H, 'u', 00H
	DB	'i', 00H, 'l', 00H, 'd', 00H, '\', 00H, 'i', 00H, 'n', 00H, 'c'
	DB	00H, 'l', 00H, 'u', 00H, 'd', 00H, 'e', 00H, '\', 00H, 'o', 00H
	DB	'p', 00H, 'e', 00H, 'n', 00H, 'c', 00H, 'v', 00H, '2', 00H, '/'
	DB	00H, 'c', 00H, 'o', 00H, 'r', 00H, 'e', 00H, '/', 00H, 't', 00H
	DB	'y', 00H, 'p', 00H, 'e', 00H, 's', 00H, '_', 00H, 'c', 00H, '.'
	DB	00H, 'h', 00H, 00H, 00H
	ORG $+4
$SG246651 DB	'(', 00H, 'u', 00H, 'n', 00H, 's', 00H, 'i', 00H, 'g', 00H
	DB	'n', 00H, 'e', 00H, 'd', 00H, ')', 00H, 'r', 00H, 'o', 00H, 'w'
	DB	00H, ' ', 00H, '<', 00H, ' ', 00H, '(', 00H, 'u', 00H, 'n', 00H
	DB	's', 00H, 'i', 00H, 'g', 00H, 'n', 00H, 'e', 00H, 'd', 00H, ')'
	DB	00H, 'm', 00H, 'a', 00H, 't', 00H, '-', 00H, '>', 00H, 'r', 00H
	DB	'o', 00H, 'w', 00H, 's', 00H, ' ', 00H, '&', 00H, '&', 00H, ' '
	DB	00H, '(', 00H, 'u', 00H, 'n', 00H, 's', 00H, 'i', 00H, 'g', 00H
	DB	'n', 00H, 'e', 00H, 'd', 00H, ')', 00H, 'c', 00H, 'o', 00H, 'l'
	DB	00H, ' ', 00H, '<', 00H, ' ', 00H, '(', 00H, 'u', 00H, 'n', 00H
	DB	's', 00H, 'i', 00H, 'g', 00H, 'n', 00H, 'e', 00H, 'd', 00H, ')'
	DB	00H, 'm', 00H, 'a', 00H, 't', 00H, '-', 00H, '>', 00H, 'c', 00H
	DB	'o', 00H, 'l', 00H, 's', 00H, 00H, 00H
	ORG $+2
$SG268172 DB	'a', 00H, 't', 00H, 'l', 00H, 'T', 00H, 'r', 00H, 'a', 00H
	DB	'c', 00H, 'e', 00H, 'C', 00H, 'O', 00H, 'M', 00H, 00H, 00H
$SG246654 DB	'D', 00H, ':', 00H, '\', 00H, 'O', 00H, 'p', 00H, 'e', 00H
	DB	'n', 00H, 'c', 00H, 'v', 00H, '\', 00H, 'o', 00H, 'p', 00H, 'e'
	DB	00H, 'n', 00H, 'c', 00H, 'v', 00H, '\', 00H, 'b', 00H, 'u', 00H
	DB	'i', 00H, 'l', 00H, 'd', 00H, '\', 00H, 'i', 00H, 'n', 00H, 'c'
	DB	00H, 'l', 00H, 'u', 00H, 'd', 00H, 'e', 00H, '\', 00H, 'o', 00H
	DB	'p', 00H, 'e', 00H, 'n', 00H, 'c', 00H, 'v', 00H, '2', 00H, '/'
	DB	00H, 'c', 00H, 'o', 00H, 'r', 00H, 'e', 00H, '/', 00H, 't', 00H
	DB	'y', 00H, 'p', 00H, 'e', 00H, 's', 00H, '_', 00H, 'c', 00H, '.'
	DB	00H, 'h', 00H, 00H, 00H
	ORG $+4
$SG355222 DB	'n', 00H, 'L', 00H, 'e', 00H, 'n', 00H, 'g', 00H, 't', 00H
	DB	'h', 00H, ' ', 00H, '>', 00H, '=', 00H, ' ', 00H, '0', 00H, 00H
	DB	00H
	ORG $+6
$SG355223 DB	'%', 00H, 'l', 00H, 's', 00H, 00H, 00H
$SG355225 DB	'n', 00H, 'L', 00H, 'e', 00H, 'n', 00H, 'g', 00H, 't', 00H
	DB	'h', 00H, ' ', 00H, '<', 00H, '=', 00H, ' ', 00H, 'l', 00H, 'e'
	DB	00H, 'g', 00H, 'a', 00H, 'c', 00H, 'y', 00H, 'B', 00H, 'u', 00H
	DB	'f', 00H, 'S', 00H, 'i', 00H, 'z', 00H, 'e', 00H, 00H, 00H
	ORG $+6
$SG355224 DB	'D', 00H, ':', 00H, '\', 00H, 'V', 00H, 'i', 00H, 's', 00H
	DB	'u', 00H, 'a', 00H, 'l', 00H, ' ', 00H, 'S', 00H, 't', 00H, 'u'
	DB	00H, 'd', 00H, 'i', 00H, 'o', 00H, '\', 00H, 'V', 00H, 'C', 00H
	DB	'\', 00H, 'a', 00H, 't', 00H, 'l', 00H, 'm', 00H, 'f', 00H, 'c'
	DB	00H, '\', 00H, 'i', 00H, 'n', 00H, 'c', 00H, 'l', 00H, 'u', 00H
	DB	'd', 00H, 'e', 00H, '\', 00H, 'a', 00H, 't', 00H, 'l', 00H, 's'
	DB	00H, 't', 00H, 'r', 00H, '.', 00H, 'h', 00H, 00H, 00H
$SG355226 DB	'%', 00H, 'l', 00H, 's', 00H, 00H, 00H
$SG355227 DB	'D', 00H, ':', 00H, '\', 00H, 'V', 00H, 'i', 00H, 's', 00H
	DB	'u', 00H, 'a', 00H, 'l', 00H, ' ', 00H, 'S', 00H, 't', 00H, 'u'
	DB	00H, 'd', 00H, 'i', 00H, 'o', 00H, '\', 00H, 'V', 00H, 'C', 00H
	DB	'\', 00H, 'a', 00H, 't', 00H, 'l', 00H, 'm', 00H, 'f', 00H, 'c'
	DB	00H, '\', 00H, 'i', 00H, 'n', 00H, 'c', 00H, 'l', 00H, 'u', 00H
	DB	'd', 00H, 'e', 00H, '\', 00H, 'a', 00H, 't', 00H, 'l', 00H, 's'
	DB	00H, 't', 00H, 'r', 00H, '.', 00H, 'h', 00H, 00H, 00H
$SG355250 DB	'_', 00H, '_', 00H, 'a', 00H, 't', 00H, 'l', 00H, '_', 00H
	DB	'c', 00H, 'o', 00H, 'n', 00H, 'd', 00H, 'V', 00H, 'a', 00H, 'l'
	DB	00H, 00H, 00H
	ORG $+4
$SG355251 DB	'%', 00H, 'l', 00H, 's', 00H, 00H, 00H
$SG355252 DB	'D', 00H, ':', 00H, '\', 00H, 'V', 00H, 'i', 00H, 's', 00H
	DB	'u', 00H, 'a', 00H, 'l', 00H, ' ', 00H, 'S', 00H, 't', 00H, 'u'
	DB	00H, 'd', 00H, 'i', 00H, 'o', 00H, '\', 00H, 'V', 00H, 'C', 00H
	DB	'\', 00H, 'a', 00H, 't', 00H, 'l', 00H, 'm', 00H, 'f', 00H, 'c'
	DB	00H, '\', 00H, 'i', 00H, 'n', 00H, 'c', 00H, 'l', 00H, 'u', 00H
	DB	'd', 00H, 'e', 00H, '\', 00H, 'a', 00H, 't', 00H, 'l', 00H, 's'
	DB	00H, 't', 00H, 'r', 00H, '.', 00H, 'h', 00H, 00H, 00H
$SG355254 DB	'_', 00H, '_', 00H, 'a', 00H, 't', 00H, 'l', 00H, '_', 00H
	DB	'c', 00H, 'o', 00H, 'n', 00H, 'd', 00H, 'V', 00H, 'a', 00H, 'l'
	DB	00H, 00H, 00H
	ORG $+4
$SG355255 DB	'%', 00H, 'l', 00H, 's', 00H, 00H, 00H
$SG355256 DB	'D', 00H, ':', 00H, '\', 00H, 'V', 00H, 'i', 00H, 's', 00H
	DB	'u', 00H, 'a', 00H, 'l', 00H, ' ', 00H, 'S', 00H, 't', 00H, 'u'
	DB	00H, 'd', 00H, 'i', 00H, 'o', 00H, '\', 00H, 'V', 00H, 'C', 00H
	DB	'\', 00H, 'a', 00H, 't', 00H, 'l', 00H, 'm', 00H, 'f', 00H, 'c'
	DB	00H, '\', 00H, 'i', 00H, 'n', 00H, 'c', 00H, 'l', 00H, 'u', 00H
	DB	'd', 00H, 'e', 00H, '\', 00H, 'a', 00H, 't', 00H, 'l', 00H, 's'
	DB	00H, 't', 00H, 'r', 00H, '.', 00H, 'h', 00H, 00H, 00H
$SG268221 DB	'a', 00H, 't', 00H, 'l', 00H, 'T', 00H, 'r', 00H, 'a', 00H
	DB	'c', 00H, 'e', 00H, 'Q', 00H, 'I', 00H, 00H, 00H
	ORG $+2
$SG268270 DB	'a', 00H, 't', 00H, 'l', 00H, 'T', 00H, 'r', 00H, 'a', 00H
	DB	'c', 00H, 'e', 00H, 'R', 00H, 'e', 00H, 'g', 00H, 'i', 00H, 's'
	DB	00H, 't', 00H, 'r', 00H, 'a', 00H, 'r', 00H, 00H, 00H
CONST	ENDS
PUBLIC	?__empty_global_delete@@YAXPEAX@Z		; __empty_global_delete
PUBLIC	?__empty_global_delete@@YAXPEAX_K@Z		; __empty_global_delete
PUBLIC	__local_stdio_printf_options
PUBLIC	??$__vcrt_va_start_verify_argument_type@QEB_W@@YAXXZ ; __vcrt_va_start_verify_argument_type<wchar_t const * __ptr64 const>
PUBLIC	_vswprintf_s_l
PUBLIC	swprintf_s
PUBLIC	??$__vcrt_va_start_verify_argument_type@PEB_W@@YAXXZ ; __vcrt_va_start_verify_argument_type<wchar_t const * __ptr64>
PUBLIC	??C?$QScopedPointer@VQObjectData@@U?$QScopedPointerDeleter@VQObjectData@@@@@@QEBAPEAVQObjectData@@XZ ; QScopedPointer<QObjectData,QScopedPointerDeleter<QObjectData> >::operator->
PUBLIC	HRESULT_FROM_WIN32
PUBLIC	??$AtlMultiply@K@ATL@@YAJPEAKKK@Z		; ATL::AtlMultiply<unsigned long>
PUBLIC	?Allocate@CCRTAllocator@ATL@@SAPEAX_K@Z		; ATL::CCRTAllocator::Allocate
PUBLIC	?Free@CCRTAllocator@ATL@@SAXPEAX@Z		; ATL::CCRTAllocator::Free
PUBLIC	??$AtlAdd@_K@ATL@@YAJPEA_K_K1@Z			; ATL::AtlAdd<unsigned __int64>
PUBLIC	??0?$CTraceCategoryEx@$0IAAAA@$0A@@ATL@@QEAA@PEB_W@Z ; ATL::CTraceCategoryEx<524288,0>::CTraceCategoryEx<524288,0>
PUBLIC	??0?$CTraceCategoryEx@$00$0A@@ATL@@QEAA@PEB_W@Z	; ATL::CTraceCategoryEx<1,0>::CTraceCategoryEx<1,0>
PUBLIC	??0?$CTraceCategoryEx@$01$0A@@ATL@@QEAA@PEB_W@Z	; ATL::CTraceCategoryEx<2,0>::CTraceCategoryEx<2,0>
PUBLIC	??B?$CTraceCategoryEx@$01$0A@@ATL@@QEAAIXZ	; ATL::CTraceCategoryEx<2,0>::operator unsigned int
PUBLIC	??0?$CTraceCategoryEx@$03$0A@@ATL@@QEAA@PEB_W@Z	; ATL::CTraceCategoryEx<4,0>::CTraceCategoryEx<4,0>
PUBLIC	??0?$CTraceCategoryEx@$07$0A@@ATL@@QEAA@PEB_W@Z	; ATL::CTraceCategoryEx<8,0>::CTraceCategoryEx<8,0>
PUBLIC	??0?$CTraceCategoryEx@$0BA@$0A@@ATL@@QEAA@PEB_W@Z ; ATL::CTraceCategoryEx<16,0>::CTraceCategoryEx<16,0>
PUBLIC	??0?$CTraceCategoryEx@$0CA@$0A@@ATL@@QEAA@PEB_W@Z ; ATL::CTraceCategoryEx<32,0>::CTraceCategoryEx<32,0>
PUBLIC	??B?$CTraceCategoryEx@$0CA@$0A@@ATL@@QEAAIXZ	; ATL::CTraceCategoryEx<32,0>::operator unsigned int
PUBLIC	??0?$CTraceCategoryEx@$0EA@$0A@@ATL@@QEAA@PEB_W@Z ; ATL::CTraceCategoryEx<64,0>::CTraceCategoryEx<64,0>
PUBLIC	??0?$CTraceCategoryEx@$0IA@$0A@@ATL@@QEAA@PEB_W@Z ; ATL::CTraceCategoryEx<128,0>::CTraceCategoryEx<128,0>
PUBLIC	??0?$CTraceCategoryEx@$0BAA@$0A@@ATL@@QEAA@PEB_W@Z ; ATL::CTraceCategoryEx<256,0>::CTraceCategoryEx<256,0>
PUBLIC	??0?$CTraceCategoryEx@$0CAA@$0A@@ATL@@QEAA@PEB_W@Z ; ATL::CTraceCategoryEx<512,0>::CTraceCategoryEx<512,0>
PUBLIC	??0?$CTraceCategoryEx@$0EAA@$0A@@ATL@@QEAA@PEB_W@Z ; ATL::CTraceCategoryEx<1024,0>::CTraceCategoryEx<1024,0>
PUBLIC	??0?$CTraceCategoryEx@$0IAA@$0A@@ATL@@QEAA@PEB_W@Z ; ATL::CTraceCategoryEx<2048,0>::CTraceCategoryEx<2048,0>
PUBLIC	??0?$CTraceCategoryEx@$0BAAA@$0A@@ATL@@QEAA@PEB_W@Z ; ATL::CTraceCategoryEx<4096,0>::CTraceCategoryEx<4096,0>
PUBLIC	??0?$CTraceCategoryEx@$0CAAA@$0A@@ATL@@QEAA@PEB_W@Z ; ATL::CTraceCategoryEx<8192,0>::CTraceCategoryEx<8192,0>
PUBLIC	??0?$CTraceCategoryEx@$0EAAA@$0A@@ATL@@QEAA@PEB_W@Z ; ATL::CTraceCategoryEx<16384,0>::CTraceCategoryEx<16384,0>
PUBLIC	??0?$CTraceCategoryEx@$0IAAA@$0A@@ATL@@QEAA@PEB_W@Z ; ATL::CTraceCategoryEx<32768,0>::CTraceCategoryEx<32768,0>
PUBLIC	??0?$CTraceCategoryEx@$0BAAAA@$0A@@ATL@@QEAA@PEB_W@Z ; ATL::CTraceCategoryEx<65536,0>::CTraceCategoryEx<65536,0>
PUBLIC	??0?$CTraceCategoryEx@$0CAAAA@$0A@@ATL@@QEAA@PEB_W@Z ; ATL::CTraceCategoryEx<131072,0>::CTraceCategoryEx<131072,0>
PUBLIC	??0?$CTraceCategoryEx@$0EAAAA@$0A@@ATL@@QEAA@PEB_W@Z ; ATL::CTraceCategoryEx<262144,0>::CTraceCategoryEx<262144,0>
PUBLIC	??0?$CTraceCategoryEx@$0BAAAAA@$0A@@ATL@@QEAA@PEB_W@Z ; ATL::CTraceCategoryEx<1048576,0>::CTraceCategoryEx<1048576,0>
PUBLIC	??0?$CTraceCategoryEx@$0CAAAAA@$0A@@ATL@@QEAA@PEB_W@Z ; ATL::CTraceCategoryEx<2097152,0>::CTraceCategoryEx<2097152,0>
PUBLIC	??0?$CTraceCategoryEx@$0EAAAAA@$0A@@ATL@@QEAA@PEB_W@Z ; ATL::CTraceCategoryEx<4194304,0>::CTraceCategoryEx<4194304,0>
PUBLIC	?GetCategoryName@CTrace@ATL@@CAPEA_WI@Z		; ATL::CTrace::GetCategoryName
PUBLIC	?TraceV@CTrace@ATL@@CAXPEBDHIIPEB_W@Z		; ATL::CTrace::TraceV
PUBLIC	?TraceV@CTrace@ATL@@SAXPEBDHIIPEB_WPEAD@Z	; ATL::CTrace::TraceV
PUBLIC	?RegisterCategory@CTrace@ATL@@SAXPEB_WI@Z	; ATL::CTrace::RegisterCategory
PUBLIC	??0?$CHeapPtrBase@_WVCCRTAllocator@ATL@@@ATL@@IEAA@XZ ; ATL::CHeapPtrBase<wchar_t,ATL::CCRTAllocator>::CHeapPtrBase<wchar_t,ATL::CCRTAllocator>
PUBLIC	??1?$CHeapPtrBase@_WVCCRTAllocator@ATL@@@ATL@@QEAA@XZ ; ATL::CHeapPtrBase<wchar_t,ATL::CCRTAllocator>::~CHeapPtrBase<wchar_t,ATL::CCRTAllocator>
PUBLIC	??B?$CHeapPtrBase@_WVCCRTAllocator@ATL@@@ATL@@QEBAPEA_WXZ ; ATL::CHeapPtrBase<wchar_t,ATL::CCRTAllocator>::operator wchar_t * __ptr64
PUBLIC	?AllocateBytes@?$CHeapPtrBase@_WVCCRTAllocator@ATL@@@ATL@@QEAA_N_K@Z ; ATL::CHeapPtrBase<wchar_t,ATL::CCRTAllocator>::AllocateBytes
PUBLIC	?Free@?$CHeapPtrBase@_WVCCRTAllocator@ATL@@@ATL@@QEAAXXZ ; ATL::CHeapPtrBase<wchar_t,ATL::CCRTAllocator>::Free
PUBLIC	??0?$CHeapPtr@_WVCCRTAllocator@ATL@@@ATL@@QEAA@XZ ; ATL::CHeapPtr<wchar_t,ATL::CCRTAllocator>::CHeapPtr<wchar_t,ATL::CCRTAllocator>
PUBLIC	?Allocate@?$CHeapPtr@_WVCCRTAllocator@ATL@@@ATL@@QEAA_N_K@Z ; ATL::CHeapPtr<wchar_t,ATL::CCRTAllocator>::Allocate
PUBLIC	??1?$CHeapPtr@_WVCCRTAllocator@ATL@@@ATL@@QEAA@XZ ; ATL::CHeapPtr<wchar_t,ATL::CCRTAllocator>::~CHeapPtr<wchar_t,ATL::CCRTAllocator>
PUBLIC	??0CPreserveLastError@ATL@@QEAA@XZ		; ATL::CPreserveLastError::CPreserveLastError
PUBLIC	??1CPreserveLastError@ATL@@QEAA@XZ		; ATL::CPreserveLastError::~CPreserveLastError
PUBLIC	??0CTraceFileAndLineInfo@ATL@@QEAA@PEBDH@Z	; ATL::CTraceFileAndLineInfo::CTraceFileAndLineInfo
PUBLIC	??RCTraceFileAndLineInfo@ATL@@QEBAXHIPEB_WZZ	; ATL::CTraceFileAndLineInfo::operator()
PUBLIC	?_AtlRaiseException@ATL@@YAXKK@Z		; ATL::_AtlRaiseException
PUBLIC	?_AtlInitializeCriticalSectionEx@ATL@@YAHPEAU_RTL_CRITICAL_SECTION@@KK@Z ; ATL::_AtlInitializeCriticalSectionEx
PUBLIC	??0CComCriticalSection@ATL@@QEAA@XZ		; ATL::CComCriticalSection::CComCriticalSection
PUBLIC	??1CComCriticalSection@ATL@@QEAA@XZ		; ATL::CComCriticalSection::~CComCriticalSection
PUBLIC	?Init@CComCriticalSection@ATL@@QEAAJXZ		; ATL::CComCriticalSection::Init
PUBLIC	?Term@CComCriticalSection@ATL@@QEAAJXZ		; ATL::CComCriticalSection::Term
PUBLIC	?GetModuleInstance@CAtlBaseModule@ATL@@QEAAPEAUHINSTANCE__@@XZ ; ATL::CAtlBaseModule::GetModuleInstance
PUBLIC	??0_ATL_COM_MODULE70@ATL@@QEAA@XZ		; ATL::_ATL_COM_MODULE70::_ATL_COM_MODULE70
PUBLIC	??1_ATL_COM_MODULE70@ATL@@QEAA@XZ		; ATL::_ATL_COM_MODULE70::~_ATL_COM_MODULE70
PUBLIC	??0?$CSimpleArray@GV?$CSimpleArrayEqualHelper@G@ATL@@@ATL@@QEAA@XZ ; ATL::CSimpleArray<unsigned short,ATL::CSimpleArrayEqualHelper<unsigned short> >::CSimpleArray<unsigned short,ATL::CSimpleArrayEqualHelper<unsigned short> >
PUBLIC	??1?$CSimpleArray@GV?$CSimpleArrayEqualHelper@G@ATL@@@ATL@@QEAA@XZ ; ATL::CSimpleArray<unsigned short,ATL::CSimpleArrayEqualHelper<unsigned short> >::~CSimpleArray<unsigned short,ATL::CSimpleArrayEqualHelper<unsigned short> >
PUBLIC	?GetSize@?$CSimpleArray@GV?$CSimpleArrayEqualHelper@G@ATL@@@ATL@@QEBAHXZ ; ATL::CSimpleArray<unsigned short,ATL::CSimpleArrayEqualHelper<unsigned short> >::GetSize
PUBLIC	?RemoveAll@?$CSimpleArray@GV?$CSimpleArrayEqualHelper@G@ATL@@@ATL@@QEAAXXZ ; ATL::CSimpleArray<unsigned short,ATL::CSimpleArrayEqualHelper<unsigned short> >::RemoveAll
PUBLIC	??A?$CSimpleArray@GV?$CSimpleArrayEqualHelper@G@ATL@@@ATL@@QEAAAEAGH@Z ; ATL::CSimpleArray<unsigned short,ATL::CSimpleArrayEqualHelper<unsigned short> >::operator[]
PUBLIC	??0_ATL_WIN_MODULE70@ATL@@QEAA@XZ		; ATL::_ATL_WIN_MODULE70::_ATL_WIN_MODULE70
PUBLIC	??1_ATL_WIN_MODULE70@ATL@@QEAA@XZ		; ATL::_ATL_WIN_MODULE70::~_ATL_WIN_MODULE70
PUBLIC	?AtlWinModuleInit@ATL@@YAJPEAU_ATL_WIN_MODULE70@1@@Z ; ATL::AtlWinModuleInit
PUBLIC	?AtlWinModuleTerm@ATL@@YAJPEAU_ATL_WIN_MODULE70@1@PEAUHINSTANCE__@@@Z ; ATL::AtlWinModuleTerm
PUBLIC	??0CAtlComModule@ATL@@QEAA@XZ			; ATL::CAtlComModule::CAtlComModule
PUBLIC	??1CAtlComModule@ATL@@QEAA@XZ			; ATL::CAtlComModule::~CAtlComModule
PUBLIC	?Term@CAtlComModule@ATL@@QEAAXXZ		; ATL::CAtlComModule::Term
PUBLIC	??0CAtlWinModule@ATL@@QEAA@XZ			; ATL::CAtlWinModule::CAtlWinModule
PUBLIC	??1CAtlWinModule@ATL@@QEAA@XZ			; ATL::CAtlWinModule::~CAtlWinModule
PUBLIC	?Term@CAtlWinModule@ATL@@QEAAXXZ		; ATL::CAtlWinModule::Term
PUBLIC	??0CWin32Heap@ATL@@QEAA@PEAX@Z			; ATL::CWin32Heap::CWin32Heap
PUBLIC	??1CWin32Heap@ATL@@UEAA@XZ			; ATL::CWin32Heap::~CWin32Heap
PUBLIC	?Allocate@CWin32Heap@ATL@@UEAAPEAX_K@Z		; ATL::CWin32Heap::Allocate
PUBLIC	?Free@CWin32Heap@ATL@@UEAAXPEAX@Z		; ATL::CWin32Heap::Free
PUBLIC	?Reallocate@CWin32Heap@ATL@@UEAAPEAXPEAX_K@Z	; ATL::CWin32Heap::Reallocate
PUBLIC	?GetSize@CWin32Heap@ATL@@UEAA_KPEAX@Z		; ATL::CWin32Heap::GetSize
PUBLIC	??_GCWin32Heap@ATL@@UEAAPEAXI@Z			; ATL::CWin32Heap::`scalar deleting destructor'
PUBLIC	??$AtlMultiply@_K@ATL@@YAJPEA_K_K1@Z		; ATL::AtlMultiply<unsigned __int64>
PUBLIC	??$AtlAdd@H@ATL@@YAJPEAHHH@Z			; ATL::AtlAdd<int>
PUBLIC	?AddRef@CStringData@ATL@@QEAAXXZ		; ATL::CStringData::AddRef
PUBLIC	??0CNilStringData@ATL@@QEAA@XZ			; ATL::CNilStringData::CNilStringData
PUBLIC	?SetManager@CNilStringData@ATL@@QEAAXPEAUIAtlStringMgr@2@@Z ; ATL::CNilStringData::SetManager
PUBLIC	??0CAtlStringMgr@ATL@@QEAA@PEAUIAtlMemMgr@1@@Z	; ATL::CAtlStringMgr::CAtlStringMgr
PUBLIC	??1CAtlStringMgr@ATL@@UEAA@XZ			; ATL::CAtlStringMgr::~CAtlStringMgr
PUBLIC	?GetInstance@CAtlStringMgr@ATL@@SAPEAUIAtlStringMgr@2@XZ ; ATL::CAtlStringMgr::GetInstance
PUBLIC	?Allocate@CAtlStringMgr@ATL@@UEAAPEAUCStringData@2@HH@Z ; ATL::CAtlStringMgr::Allocate
PUBLIC	?Free@CAtlStringMgr@ATL@@UEAAXPEAUCStringData@2@@Z ; ATL::CAtlStringMgr::Free
PUBLIC	?Reallocate@CAtlStringMgr@ATL@@UEAAPEAUCStringData@2@PEAU32@HH@Z ; ATL::CAtlStringMgr::Reallocate
PUBLIC	?GetNilString@CAtlStringMgr@ATL@@UEAAPEAUCStringData@2@XZ ; ATL::CAtlStringMgr::GetNilString
PUBLIC	?Clone@CAtlStringMgr@ATL@@UEAAPEAUIAtlStringMgr@2@XZ ; ATL::CAtlStringMgr::Clone
PUBLIC	?StaticInitialize@CAtlStringMgr@ATL@@CA_NXZ	; ATL::CAtlStringMgr::StaticInitialize
PUBLIC	??_GCAtlStringMgr@ATL@@UEAAPEAXI@Z		; ATL::CAtlStringMgr::`scalar deleting destructor'
PUBLIC	??__FstrHeap@?1??GetInstance@CAtlStringMgr@ATL@@SAPEAUIAtlStringMgr@2@XZ@YAXXZ ; `ATL::CAtlStringMgr::GetInstance'::`2'::`dynamic atexit destructor for 'strHeap''
PUBLIC	??__FstrMgr@?1??GetInstance@CAtlStringMgr@ATL@@SAPEAUIAtlStringMgr@2@XZ@YAXXZ ; `ATL::CAtlStringMgr::GetInstance'::`2'::`dynamic atexit destructor for 'strMgr''
PUBLIC	??$AtlAlignUp@H@ATL@@YAHHK@Z			; ATL::AtlAlignUp<int>
PUBLIC	??$AtlAdd@K@ATL@@YAJPEAKKK@Z			; ATL::AtlAdd<unsigned long>
PUBLIC	?metaObject@MoldMachine@@UEBAPEBUQMetaObject@@XZ ; MoldMachine::metaObject
PUBLIC	?qt_metacast@MoldMachine@@UEAAPEAXPEBD@Z	; MoldMachine::qt_metacast
PUBLIC	?qt_metacall@MoldMachine@@UEAAHW4Call@QMetaObject@@HPEAPEAX@Z ; MoldMachine::qt_metacall
PUBLIC	?qt_static_metacall@MoldMachine@@CAXPEAVQObject@@W4Call@QMetaObject@@HPEAPEAX@Z ; MoldMachine::qt_static_metacall
PUBLIC	?_OptionsStorage@?1??__local_stdio_printf_options@@9@4_KA ; `__local_stdio_printf_options'::`2'::_OptionsStorage
PUBLIC	??_C@_17CNPHIMPH@?$AA?$CF?$AAl?$AAs?$AA?$AA@	; `string'
PUBLIC	??_C@_13COJANIEC@?$AA0?$AA?$AA@			; `string'
PUBLIC	??_C@_1FM@NBHDFKJE@?$AAD?$AA?3?$AA?2?$AAV?$AAi?$AAs?$AAu?$AAa?$AAl?$AA?5?$AAS?$AAt?$AAu?$AAd?$AAi?$AAo?$AA?2?$AAV?$AAC?$AA?2?$AAa?$AAt?$AAl?$AAm?$AAf?$AAc?$AA?2?$AAi?$AAn?$AAc?$AAl?$AAu@ ; `string'
PUBLIC	?atlTraceGeneral@ATL@@3V?$CTraceCategoryEx@$00$0A@@1@A ; ATL::atlTraceGeneral
PUBLIC	?atlTraceCOM@ATL@@3V?$CTraceCategoryEx@$01$0A@@1@A ; ATL::atlTraceCOM
PUBLIC	?atlTraceQI@ATL@@3V?$CTraceCategoryEx@$03$0A@@1@A ; ATL::atlTraceQI
PUBLIC	?atlTraceRegistrar@ATL@@3V?$CTraceCategoryEx@$07$0A@@1@A ; ATL::atlTraceRegistrar
PUBLIC	?atlTraceRefcount@ATL@@3V?$CTraceCategoryEx@$0BA@$0A@@1@A ; ATL::atlTraceRefcount
PUBLIC	?atlTraceWindowing@ATL@@3V?$CTraceCategoryEx@$0CA@$0A@@1@A ; ATL::atlTraceWindowing
PUBLIC	?atlTraceControls@ATL@@3V?$CTraceCategoryEx@$0EA@$0A@@1@A ; ATL::atlTraceControls
PUBLIC	?atlTraceHosting@ATL@@3V?$CTraceCategoryEx@$0IA@$0A@@1@A ; ATL::atlTraceHosting
PUBLIC	?atlTraceDBClient@ATL@@3V?$CTraceCategoryEx@$0BAA@$0A@@1@A ; ATL::atlTraceDBClient
PUBLIC	?atlTraceDBProvider@ATL@@3V?$CTraceCategoryEx@$0CAA@$0A@@1@A ; ATL::atlTraceDBProvider
PUBLIC	?atlTraceSnapin@ATL@@3V?$CTraceCategoryEx@$0EAA@$0A@@1@A ; ATL::atlTraceSnapin
PUBLIC	?atlTraceNotImpl@ATL@@3V?$CTraceCategoryEx@$0IAA@$0A@@1@A ; ATL::atlTraceNotImpl
PUBLIC	?atlTraceAllocation@ATL@@3V?$CTraceCategoryEx@$0BAAA@$0A@@1@A ; ATL::atlTraceAllocation
PUBLIC	?atlTraceException@ATL@@3V?$CTraceCategoryEx@$0CAAA@$0A@@1@A ; ATL::atlTraceException
PUBLIC	?atlTraceTime@ATL@@3V?$CTraceCategoryEx@$0EAAA@$0A@@1@A ; ATL::atlTraceTime
PUBLIC	?atlTraceCache@ATL@@3V?$CTraceCategoryEx@$0IAAA@$0A@@1@A ; ATL::atlTraceCache
PUBLIC	?atlTraceStencil@ATL@@3V?$CTraceCategoryEx@$0BAAAA@$0A@@1@A ; ATL::atlTraceStencil
PUBLIC	?atlTraceString@ATL@@3V?$CTraceCategoryEx@$0CAAAA@$0A@@1@A ; ATL::atlTraceString
PUBLIC	?atlTraceMap@ATL@@3V?$CTraceCategoryEx@$0EAAAA@$0A@@1@A ; ATL::atlTraceMap
PUBLIC	?atlTraceUtil@ATL@@3V?$CTraceCategoryEx@$0IAAAA@$0A@@1@A ; ATL::atlTraceUtil
PUBLIC	?atlTraceSecurity@ATL@@3V?$CTraceCategoryEx@$0BAAAAA@$0A@@1@A ; ATL::atlTraceSecurity
PUBLIC	?atlTraceSync@ATL@@3V?$CTraceCategoryEx@$0CAAAAA@$0A@@1@A ; ATL::atlTraceSync
PUBLIC	?atlTraceISAPI@ATL@@3V?$CTraceCategoryEx@$0EAAAAA@$0A@@1@A ; ATL::atlTraceISAPI
PUBLIC	?m_nLevel@CTrace@ATL@@1IA			; ATL::CTrace::m_nLevel
PUBLIC	?m_nCategory@CTrace@ATL@@1IA			; ATL::CTrace::m_nCategory
PUBLIC	?m_nLastCategory@CTrace@ATL@@1IA		; ATL::CTrace::m_nLastCategory
PUBLIC	?m_nMap@CTrace@ATL@@1PAUCategoryMap@12@A	; ATL::CTrace::m_nMap
PUBLIC	??_C@_1O@LFNDFEBP@?$AA?$CF?$AAl?$AAs?$AA?5?$AA?9?$AA?5?$AA?$AA@ ; `string'
PUBLIC	??_C@_1M@PGKOAACE@?$AA?$CF?$AAu?$AA?5?$AA?9?$AA?5?$AA?$AA@ ; `string'
PUBLIC	??_C@_1O@OAIPCDPO@?$AA?$CF?$AAl?$AAs?$AA?$CF?$AAl?$AAs?$AA?$AA@ ; `string'
PUBLIC	??_C@_17LGGGMOOB@?$AA?$CF?$AAh?$AAs?$AA?$AA@	; `string'
PUBLIC	??_C@_1EO@EBPPKGOM@?$AAf?$AAa?$AAl?$AAs?$AAe?$AA?5?$AA?$CG?$AA?$CG?$AA?5?$AA?$CC?$AAT?$AAo?$AAo?$AA?5?$AAm?$AAa?$AAn?$AAy?$AA?5?$AAc?$AAa?$AAt?$AAe?$AAg?$AAo?$AAr?$AAi?$AAe?$AAs?$AA?5?$AAd?$AAe@ ; `string'
PUBLIC	??_C@_1FM@KCNIDIBH@?$AAD?$AA?3?$AA?2?$AAV?$AAi?$AAs?$AAu?$AAa?$AAl?$AA?5?$AAS?$AAt?$AAu?$AAd?$AAi?$AAo?$AA?2?$AAV?$AAC?$AA?2?$AAa?$AAt?$AAl?$AAm?$AAf?$AAc?$AA?2?$AAi?$AAn?$AAc?$AAl?$AAu@ ; `string'
PUBLIC	?m_bInitFailed@CAtlBaseModule@ATL@@2_NA		; ATL::CAtlBaseModule::m_bInitFailed
PUBLIC	??_C@_1BM@GBBOFEAE@?$AA_?$AA_?$AAa?$AAt?$AAl?$AA_?$AAc?$AAo?$AAn?$AAd?$AAV?$AAa?$AAl?$AA?$AA@ ; `string'
PUBLIC	??_C@_1FK@OPACDJFG@?$AAD?$AA?3?$AA?2?$AAV?$AAi?$AAs?$AAu?$AAa?$AAl?$AA?5?$AAS?$AAt?$AAu?$AAd?$AAi?$AAo?$AA?2?$AAV?$AAC?$AA?2?$AAa?$AAt?$AAl?$AAm?$AAf?$AAc?$AA?2?$AAi?$AAn?$AAc?$AAl?$AAu@ ; `string'
PUBLIC	??_C@_0CN@DJIBLIGL@D?3?2Visual?5Studio?2VC?2atlmfc?2inclu@ ; `string'
PUBLIC	??_C@_1IA@KEEOONGN@?$AAE?$AAR?$AAR?$AAO?$AAR?$AA?5?$AA?3?$AA?5?$AAU?$AAn?$AAa?$AAb?$AAl?$AAe?$AA?5?$AAt?$AAo?$AA?5?$AAi?$AAn?$AAi?$AAt?$AAi?$AAa?$AAl?$AAi?$AAz?$AAe?$AA?5?$AAc?$AAr?$AAi@ ; `string'
PUBLIC	?_AtlComModule@ATL@@3VCAtlComModule@1@A		; ATL::_AtlComModule
PUBLIC	?_AtlWinModule@ATL@@3VCAtlWinModule@1@A		; ATL::_AtlWinModule
PUBLIC	??_C@_1IG@OPJAFKJH@?$AAE?$AAR?$AAR?$AAO?$AAR?$AA?5?$AA?3?$AA?5?$AAU?$AAn?$AAa?$AAb?$AAl?$AAe?$AA?5?$AAt?$AAo?$AA?5?$AAi?$AAn?$AAi?$AAt?$AAi?$AAa?$AAl?$AAi?$AAz?$AAe?$AA?5?$AAc?$AAr?$AAi@ ; `string'
PUBLIC	??_7CWin32Heap@ATL@@6B@				; ATL::CWin32Heap::`vftable'
PUBLIC	??_C@_1BG@CLPBKBHG@?$AAh?$AAH?$AAe?$AAa?$AAp?$AA?5?$AA?$CB?$AA?$DN?$AA?5?$AA0?$AA?$AA@ ; `string'
PUBLIC	??_C@_1FI@EACEKNBC@?$AAD?$AA?3?$AA?2?$AAV?$AAi?$AAs?$AAu?$AAa?$AAl?$AA?5?$AAS?$AAt?$AAu?$AAd?$AAi?$AAo?$AA?2?$AAV?$AAC?$AA?2?$AAa?$AAt?$AAl?$AAm?$AAf?$AAc?$AA?2?$AAi?$AAn?$AAc?$AAl?$AAu@ ; `string'
PUBLIC	??_C@_1BC@PMINONJG@?$AAb?$AAS?$AAu?$AAc?$AAc?$AAe?$AAs?$AAs?$AA?$AA@ ; `string'
PUBLIC	??_C@_1BE@BLGCOAPB@?$AAn?$AAR?$AAe?$AAf?$AAs?$AA?5?$AA?$DO?$AA?5?$AA0?$AA?$AA@ ; `string'
PUBLIC	??_C@_1GA@HKBCNNJD@?$AAD?$AA?3?$AA?2?$AAV?$AAi?$AAs?$AAu?$AAa?$AAl?$AA?5?$AAS?$AAt?$AAu?$AAd?$AAi?$AAo?$AA?2?$AAV?$AAC?$AA?2?$AAa?$AAt?$AAl?$AAm?$AAf?$AAc?$AA?2?$AAi?$AAn?$AAc?$AAl?$AAu@ ; `string'
PUBLIC	??_C@_1CA@MEFFJNJ@?$AAp?$AAS?$AAt?$AAr?$AAi?$AAn?$AAg?$AAM?$AAg?$AAr?$AA?5?$AA?$DN?$AA?$DN?$AA?5?$AA0?$AA?$AA@ ; `string'
PUBLIC	?isInitialized@CAtlStringMgr@ATL@@0_NA		; ATL::CAtlStringMgr::isInitialized
PUBLIC	??_7CAtlStringMgr@ATL@@6B@			; ATL::CAtlStringMgr::`vftable'
PUBLIC	??_C@_1FI@MIPKFKKB@?$AAD?$AA?3?$AA?2?$AAV?$AAi?$AAs?$AAu?$AAa?$AAl?$AA?5?$AAS?$AAt?$AAu?$AAd?$AAi?$AAo?$AA?2?$AAV?$AAC?$AA?2?$AAa?$AAt?$AAl?$AAm?$AAf?$AAc?$AA?2?$AAi?$AAn?$AAc?$AAl?$AAu@ ; `string'
PUBLIC	?strHeap@?1??GetInstance@CAtlStringMgr@ATL@@SAPEAUIAtlStringMgr@3@XZ@4VCWin32Heap@3@A ; `ATL::CAtlStringMgr::GetInstance'::`2'::strHeap
PUBLIC	?$TSS0@?1??GetInstance@CAtlStringMgr@ATL@@SAPEAUIAtlStringMgr@3@XZ@4HA ; TSS0<`template-parameter-2',ATL::CAtlStringMgr::tInstance,ATL::IAtlStringMgr * __ptr64 * const volatile,void,int, ?? &>
PUBLIC	?strMgr@?1??GetInstance@CAtlStringMgr@ATL@@SAPEAUIAtlStringMgr@3@XZ@4V23@A ; `ATL::CAtlStringMgr::GetInstance'::`2'::strMgr
PUBLIC	?$TSS1@?1??GetInstance@CAtlStringMgr@ATL@@SAPEAUIAtlStringMgr@3@XZ@4HA ; TSS1<`template-parameter-2',ATL::CAtlStringMgr::tInstance,ATL::IAtlStringMgr * __ptr64 * const volatile,void,int, ?? &>
PUBLIC	??_C@_1BG@IEBIBJEI@?$AAp?$AAD?$AAa?$AAt?$AAa?$AA?5?$AA?$CB?$AA?$DN?$AA?5?$AA0?$AA?$AA@ ; `string'
PUBLIC	??_C@_1DE@KEEBDKDC@?$AAp?$AAD?$AAa?$AAt?$AAa?$AA?9?$AA?$DO?$AAp?$AAS?$AAt?$AAr?$AAi?$AAn?$AAg?$AAM?$AAg?$AAr?$AA?5?$AA?$DN?$AA?$DN?$AA?5?$AAt?$AAh?$AAi?$AAs?$AA?$AA@ ; `string'
PUBLIC	?staticMetaObject@MoldMachine@@2UQMetaObject@@B	; MoldMachine::staticMetaObject
PUBLIC	??_C@_1EA@JHMKKLFC@?$AAn?$AAI?$AAn?$AAd?$AAe?$AAx?$AA?5?$AA?$DO?$AA?$DN?$AA?5?$AA0?$AA?5?$AA?$CG?$AA?$CG?$AA?5?$AAn?$AAI?$AAn?$AAd?$AAe?$AAx?$AA?5?$AA?$DM?$AA?5?$AAm?$AA_?$AAn?$AAS?$AAi?$AAz?$AAe?$AA?$AA@ ; `string'
PUBLIC	??_C@_1GC@MMHKDKGK@?$AAD?$AA?3?$AA?2?$AAV?$AAi?$AAs?$AAu?$AAa?$AAl?$AA?5?$AAS?$AAt?$AAu?$AAd?$AAi?$AAo?$AA?2?$AAV?$AAC?$AA?2?$AAa?$AAt?$AAl?$AAm?$AAf?$AAc?$AA?2?$AAi?$AAn?$AAc?$AAl?$AAu@ ; `string'
PUBLIC	??_C@_1BK@NHECDDNK@?$AAm?$AA_?$AAp?$AAD?$AAa?$AAt?$AAa?$AA?5?$AA?$DN?$AA?$DN?$AA?5?$AA0?$AA?$AA@ ; `string'
PUBLIC	??_R4CWin32Heap@ATL@@6B@			; ATL::CWin32Heap::`RTTI Complete Object Locator'
PUBLIC	??_R0?AVCWin32Heap@ATL@@@8			; ATL::CWin32Heap `RTTI Type Descriptor'
PUBLIC	??_R3CWin32Heap@ATL@@8				; ATL::CWin32Heap::`RTTI Class Hierarchy Descriptor'
PUBLIC	??_R2CWin32Heap@ATL@@8				; ATL::CWin32Heap::`RTTI Base Class Array'
PUBLIC	??_R1A@?0A@EA@CWin32Heap@ATL@@8			; ATL::CWin32Heap::`RTTI Base Class Descriptor at (0,-1,0,64)'
PUBLIC	??_R1A@?0A@EA@IAtlMemMgr@ATL@@8			; ATL::IAtlMemMgr::`RTTI Base Class Descriptor at (0,-1,0,64)'
PUBLIC	??_R0?AUIAtlMemMgr@ATL@@@8			; ATL::IAtlMemMgr `RTTI Type Descriptor'
PUBLIC	??_R3IAtlMemMgr@ATL@@8				; ATL::IAtlMemMgr::`RTTI Class Hierarchy Descriptor'
PUBLIC	??_R2IAtlMemMgr@ATL@@8				; ATL::IAtlMemMgr::`RTTI Base Class Array'
PUBLIC	??_R1A@?0A@EA@IAtlStringMgr@ATL@@8		; ATL::IAtlStringMgr::`RTTI Base Class Descriptor at (0,-1,0,64)'
PUBLIC	??_R0?AUIAtlStringMgr@ATL@@@8			; ATL::IAtlStringMgr `RTTI Type Descriptor'
PUBLIC	??_R3IAtlStringMgr@ATL@@8			; ATL::IAtlStringMgr::`RTTI Class Hierarchy Descriptor'
PUBLIC	??_R2IAtlStringMgr@ATL@@8			; ATL::IAtlStringMgr::`RTTI Base Class Array'
PUBLIC	??_R4CAtlStringMgr@ATL@@6B@			; ATL::CAtlStringMgr::`RTTI Complete Object Locator'
PUBLIC	??_R0?AVCAtlStringMgr@ATL@@@8			; ATL::CAtlStringMgr `RTTI Type Descriptor'
PUBLIC	??_R3CAtlStringMgr@ATL@@8			; ATL::CAtlStringMgr::`RTTI Class Hierarchy Descriptor'
PUBLIC	??_R2CAtlStringMgr@ATL@@8			; ATL::CAtlStringMgr::`RTTI Base Class Array'
PUBLIC	??_R1A@?0A@EA@CAtlStringMgr@ATL@@8		; ATL::CAtlStringMgr::`RTTI Base Class Descriptor at (0,-1,0,64)'
EXTRN	??3@YAXPEAX_K@Z:PROC				; operator delete
EXTRN	atexit:PROC
EXTRN	_Init_thread_header:PROC
EXTRN	_Init_thread_footer:PROC
EXTRN	__imp_free:PROC
EXTRN	__imp_malloc:PROC
EXTRN	__imp___stdio_common_vswprintf:PROC
EXTRN	__imp___stdio_common_vswprintf_s:PROC
EXTRN	__imp___stdio_common_vsnwprintf_s:PROC
EXTRN	memset:PROC
EXTRN	__imp_wcscpy_s:PROC
EXTRN	__imp_wcslen:PROC
EXTRN	strcmp:PROC
EXTRN	__imp__CrtDbgReportW:PROC
EXTRN	__imp_??0QString@@QEAA@AEBV0@@Z:PROC
EXTRN	__imp_?dynamicMetaObject@QObjectData@@QEBAPEAUQMetaObject@@XZ:PROC
EXTRN	__imp_?qt_metacast@QMainWindow@@UEAAPEAXPEBD@Z:PROC
EXTRN	__imp_?qt_metacall@QMainWindow@@UEAAHW4Call@QMetaObject@@HPEAPEAX@Z:PROC
EXTRN	__imp_DecodePointer:PROC
EXTRN	__imp_RaiseException:PROC
EXTRN	__imp_GetLastError:PROC
EXTRN	__imp_SetLastError:PROC
EXTRN	__imp_HeapDestroy:PROC
EXTRN	__imp_HeapAlloc:PROC
EXTRN	__imp_HeapReAlloc:PROC
EXTRN	__imp_HeapFree:PROC
EXTRN	__imp_HeapSize:PROC
EXTRN	__imp_GetProcessHeap:PROC
EXTRN	__imp_InitializeCriticalSectionEx:PROC
EXTRN	__imp_DeleteCriticalSection:PROC
EXTRN	__imp_UnregisterClassW:PROC
EXTRN	??_ECWin32Heap@ATL@@UEAAPEAXI@Z:PROC		; ATL::CWin32Heap::`vector deleting destructor'
EXTRN	??_ECAtlStringMgr@ATL@@UEAAPEAXI@Z:PROC		; ATL::CAtlStringMgr::`vector deleting destructor'
EXTRN	?saveConfig2XML@MoldMachine@@AEAAXXZ:PROC	; MoldMachine::saveConfig2XML
EXTRN	?ENetIOSetting@MoldMachine@@AEAAXXZ:PROC	; MoldMachine::ENetIOSetting
EXTRN	?imageSetting@MoldMachine@@AEAAXXZ:PROC		; MoldMachine::imageSetting
EXTRN	?cycleTimesSetting@MoldMachine@@AEAAXXZ:PROC	; MoldMachine::cycleTimesSetting
EXTRN	?cycleStepSetting@MoldMachine@@AEAAXXZ:PROC	; MoldMachine::cycleStepSetting
EXTRN	?counterSetting@MoldMachine@@AEAAXXZ:PROC	; MoldMachine::counterSetting
EXTRN	?delaySetting@MoldMachine@@AEAAXXZ:PROC		; MoldMachine::delaySetting
EXTRN	?dataSource@MoldMachine@@AEAAXXZ:PROC		; MoldMachine::dataSource
EXTRN	?aboutHelp@MoldMachine@@AEAAXXZ:PROC		; MoldMachine::aboutHelp
EXTRN	?dealDataSrcChosen@MoldMachine@@AEAAXH@Z:PROC	; MoldMachine::dealDataSrcChosen
EXTRN	?runAll@MoldMachine@@AEAAXXZ:PROC		; MoldMachine::runAll
EXTRN	?stopAll@MoldMachine@@AEAAXXZ:PROC		; MoldMachine::stopAll
EXTRN	?dealThreadDone@MoldMachine@@AEAAXXZ:PROC	; MoldMachine::dealThreadDone
EXTRN	?dealGrabImg@MoldMachine@@AEAAXH@Z:PROC		; MoldMachine::dealGrabImg
EXTRN	?dealExcuteImg@MoldMachine@@AEAAXHVQString@@0@Z:PROC ; MoldMachine::dealExcuteImg
EXTRN	__CxxFrameHandler3:PROC
EXTRN	__GSHandlerCheck:PROC
EXTRN	__security_check_cookie:PROC
EXTRN	_Init_thread_epoch:DWORD
EXTRN	??_7type_info@@6B@:BYTE				; type_info::`vftable'
EXTRN	__imp_?staticMetaObject@QMainWindow@@2UQMetaObject@@B:BYTE
EXTRN	?_AtlBaseModule@ATL@@3VCAtlBaseModule@1@A:BYTE	; ATL::_AtlBaseModule
EXTRN	__ImageBase:BYTE
EXTRN	__ImageBase:BYTE
EXTRN	__security_cookie:QWORD
EXTRN	_tls_index:DWORD
;	COMDAT ?_OptionsStorage@?1??__local_stdio_printf_options@@9@4_KA
_BSS	SEGMENT
?_OptionsStorage@?1??__local_stdio_printf_options@@9@4_KA DQ 01H DUP (?) ; `__local_stdio_printf_options'::`2'::_OptionsStorage
_BSS	ENDS
;	COMDAT ?atlTraceGeneral@ATL@@3V?$CTraceCategoryEx@$00$0A@@1@A
_BSS	SEGMENT
?atlTraceGeneral@ATL@@3V?$CTraceCategoryEx@$00$0A@@1@A DD 01H DUP (?) ; ATL::atlTraceGeneral
_BSS	ENDS
;	COMDAT ?atlTraceCOM@ATL@@3V?$CTraceCategoryEx@$01$0A@@1@A
_BSS	SEGMENT
?atlTraceCOM@ATL@@3V?$CTraceCategoryEx@$01$0A@@1@A DD 01H DUP (?) ; ATL::atlTraceCOM
_BSS	ENDS
;	COMDAT ?atlTraceQI@ATL@@3V?$CTraceCategoryEx@$03$0A@@1@A
_BSS	SEGMENT
?atlTraceQI@ATL@@3V?$CTraceCategoryEx@$03$0A@@1@A DD 01H DUP (?) ; ATL::atlTraceQI
_BSS	ENDS
;	COMDAT ?atlTraceRegistrar@ATL@@3V?$CTraceCategoryEx@$07$0A@@1@A
_BSS	SEGMENT
?atlTraceRegistrar@ATL@@3V?$CTraceCategoryEx@$07$0A@@1@A DD 01H DUP (?) ; ATL::atlTraceRegistrar
_BSS	ENDS
;	COMDAT ?atlTraceRefcount@ATL@@3V?$CTraceCategoryEx@$0BA@$0A@@1@A
_BSS	SEGMENT
?atlTraceRefcount@ATL@@3V?$CTraceCategoryEx@$0BA@$0A@@1@A DD 01H DUP (?) ; ATL::atlTraceRefcount
_BSS	ENDS
;	COMDAT ?atlTraceWindowing@ATL@@3V?$CTraceCategoryEx@$0CA@$0A@@1@A
_BSS	SEGMENT
?atlTraceWindowing@ATL@@3V?$CTraceCategoryEx@$0CA@$0A@@1@A DD 01H DUP (?) ; ATL::atlTraceWindowing
_BSS	ENDS
;	COMDAT ?atlTraceControls@ATL@@3V?$CTraceCategoryEx@$0EA@$0A@@1@A
_BSS	SEGMENT
?atlTraceControls@ATL@@3V?$CTraceCategoryEx@$0EA@$0A@@1@A DD 01H DUP (?) ; ATL::atlTraceControls
_BSS	ENDS
;	COMDAT ?atlTraceHosting@ATL@@3V?$CTraceCategoryEx@$0IA@$0A@@1@A
_BSS	SEGMENT
?atlTraceHosting@ATL@@3V?$CTraceCategoryEx@$0IA@$0A@@1@A DD 01H DUP (?) ; ATL::atlTraceHosting
_BSS	ENDS
;	COMDAT ?atlTraceDBClient@ATL@@3V?$CTraceCategoryEx@$0BAA@$0A@@1@A
_BSS	SEGMENT
?atlTraceDBClient@ATL@@3V?$CTraceCategoryEx@$0BAA@$0A@@1@A DD 01H DUP (?) ; ATL::atlTraceDBClient
_BSS	ENDS
;	COMDAT ?atlTraceDBProvider@ATL@@3V?$CTraceCategoryEx@$0CAA@$0A@@1@A
_BSS	SEGMENT
?atlTraceDBProvider@ATL@@3V?$CTraceCategoryEx@$0CAA@$0A@@1@A DD 01H DUP (?) ; ATL::atlTraceDBProvider
_BSS	ENDS
;	COMDAT ?atlTraceSnapin@ATL@@3V?$CTraceCategoryEx@$0EAA@$0A@@1@A
_BSS	SEGMENT
?atlTraceSnapin@ATL@@3V?$CTraceCategoryEx@$0EAA@$0A@@1@A DD 01H DUP (?) ; ATL::atlTraceSnapin
_BSS	ENDS
;	COMDAT ?atlTraceNotImpl@ATL@@3V?$CTraceCategoryEx@$0IAA@$0A@@1@A
_BSS	SEGMENT
?atlTraceNotImpl@ATL@@3V?$CTraceCategoryEx@$0IAA@$0A@@1@A DD 01H DUP (?) ; ATL::atlTraceNotImpl
_BSS	ENDS
;	COMDAT ?atlTraceAllocation@ATL@@3V?$CTraceCategoryEx@$0BAAA@$0A@@1@A
_BSS	SEGMENT
?atlTraceAllocation@ATL@@3V?$CTraceCategoryEx@$0BAAA@$0A@@1@A DD 01H DUP (?) ; ATL::atlTraceAllocation
_BSS	ENDS
;	COMDAT ?atlTraceException@ATL@@3V?$CTraceCategoryEx@$0CAAA@$0A@@1@A
_BSS	SEGMENT
?atlTraceException@ATL@@3V?$CTraceCategoryEx@$0CAAA@$0A@@1@A DD 01H DUP (?) ; ATL::atlTraceException
_BSS	ENDS
;	COMDAT ?atlTraceTime@ATL@@3V?$CTraceCategoryEx@$0EAAA@$0A@@1@A
_BSS	SEGMENT
?atlTraceTime@ATL@@3V?$CTraceCategoryEx@$0EAAA@$0A@@1@A DD 01H DUP (?) ; ATL::atlTraceTime
_BSS	ENDS
;	COMDAT ?atlTraceCache@ATL@@3V?$CTraceCategoryEx@$0IAAA@$0A@@1@A
_BSS	SEGMENT
?atlTraceCache@ATL@@3V?$CTraceCategoryEx@$0IAAA@$0A@@1@A DD 01H DUP (?) ; ATL::atlTraceCache
_BSS	ENDS
;	COMDAT ?atlTraceStencil@ATL@@3V?$CTraceCategoryEx@$0BAAAA@$0A@@1@A
_BSS	SEGMENT
?atlTraceStencil@ATL@@3V?$CTraceCategoryEx@$0BAAAA@$0A@@1@A DD 01H DUP (?) ; ATL::atlTraceStencil
_BSS	ENDS
;	COMDAT ?atlTraceString@ATL@@3V?$CTraceCategoryEx@$0CAAAA@$0A@@1@A
_BSS	SEGMENT
?atlTraceString@ATL@@3V?$CTraceCategoryEx@$0CAAAA@$0A@@1@A DD 01H DUP (?) ; ATL::atlTraceString
_BSS	ENDS
;	COMDAT ?atlTraceMap@ATL@@3V?$CTraceCategoryEx@$0EAAAA@$0A@@1@A
_BSS	SEGMENT
?atlTraceMap@ATL@@3V?$CTraceCategoryEx@$0EAAAA@$0A@@1@A DD 01H DUP (?) ; ATL::atlTraceMap
_BSS	ENDS
;	COMDAT ?atlTraceUtil@ATL@@3V?$CTraceCategoryEx@$0IAAAA@$0A@@1@A
_BSS	SEGMENT
?atlTraceUtil@ATL@@3V?$CTraceCategoryEx@$0IAAAA@$0A@@1@A DD 01H DUP (?) ; ATL::atlTraceUtil
_BSS	ENDS
;	COMDAT ?atlTraceSecurity@ATL@@3V?$CTraceCategoryEx@$0BAAAAA@$0A@@1@A
_BSS	SEGMENT
?atlTraceSecurity@ATL@@3V?$CTraceCategoryEx@$0BAAAAA@$0A@@1@A DD 01H DUP (?) ; ATL::atlTraceSecurity
_BSS	ENDS
;	COMDAT ?atlTraceSync@ATL@@3V?$CTraceCategoryEx@$0CAAAAA@$0A@@1@A
_BSS	SEGMENT
?atlTraceSync@ATL@@3V?$CTraceCategoryEx@$0CAAAAA@$0A@@1@A DD 01H DUP (?) ; ATL::atlTraceSync
_BSS	ENDS
;	COMDAT ?atlTraceISAPI@ATL@@3V?$CTraceCategoryEx@$0EAAAAA@$0A@@1@A
_BSS	SEGMENT
?atlTraceISAPI@ATL@@3V?$CTraceCategoryEx@$0EAAAAA@$0A@@1@A DD 01H DUP (?) ; ATL::atlTraceISAPI
_BSS	ENDS
;	COMDAT ?m_nLevel@CTrace@ATL@@1IA
_BSS	SEGMENT
?m_nLevel@CTrace@ATL@@1IA DD 01H DUP (?)		; ATL::CTrace::m_nLevel
_BSS	ENDS
;	COMDAT ?m_nLastCategory@CTrace@ATL@@1IA
_BSS	SEGMENT
?m_nLastCategory@CTrace@ATL@@1IA DD 01H DUP (?)		; ATL::CTrace::m_nLastCategory
_BSS	ENDS
;	COMDAT ?m_nMap@CTrace@ATL@@1PAUCategoryMap@12@A
_BSS	SEGMENT
?m_nMap@CTrace@ATL@@1PAUCategoryMap@12@A DB 02080H DUP (?) ; ATL::CTrace::m_nMap
_BSS	ENDS
;	COMDAT ?m_bInitFailed@CAtlBaseModule@ATL@@2_NA
_BSS	SEGMENT
?m_bInitFailed@CAtlBaseModule@ATL@@2_NA DB 01H DUP (?)	; ATL::CAtlBaseModule::m_bInitFailed
_BSS	ENDS
;	COMDAT ?_AtlComModule@ATL@@3VCAtlComModule@1@A
_BSS	SEGMENT
?_AtlComModule@ATL@@3VCAtlComModule@1@A DB 048H DUP (?)	; ATL::_AtlComModule
_BSS	ENDS
;	COMDAT ?_AtlWinModule@ATL@@3VCAtlWinModule@1@A
_BSS	SEGMENT
?_AtlWinModule@ATL@@3VCAtlWinModule@1@A DB 048H DUP (?)	; ATL::_AtlWinModule
_BSS	ENDS
;	COMDAT ?isInitialized@CAtlStringMgr@ATL@@0_NA
_BSS	SEGMENT
?isInitialized@CAtlStringMgr@ATL@@0_NA DB 01H DUP (?)	; ATL::CAtlStringMgr::isInitialized
_BSS	ENDS
;	COMDAT ?strHeap@?1??GetInstance@CAtlStringMgr@ATL@@SAPEAUIAtlStringMgr@3@XZ@4VCWin32Heap@3@A
_BSS	SEGMENT
?strHeap@?1??GetInstance@CAtlStringMgr@ATL@@SAPEAUIAtlStringMgr@3@XZ@4VCWin32Heap@3@A DB 018H DUP (?) ; `ATL::CAtlStringMgr::GetInstance'::`2'::strHeap
_BSS	ENDS
;	COMDAT ?$TSS0@?1??GetInstance@CAtlStringMgr@ATL@@SAPEAUIAtlStringMgr@3@XZ@4HA
_BSS	SEGMENT
?$TSS0@?1??GetInstance@CAtlStringMgr@ATL@@SAPEAUIAtlStringMgr@3@XZ@4HA DD 01H DUP (?) ; TSS0<`template-parameter-2',ATL::CAtlStringMgr::tInstance,ATL::IAtlStringMgr * __ptr64 * const volatile,void,int, ?? &>
_BSS	ENDS
;	COMDAT ?strMgr@?1??GetInstance@CAtlStringMgr@ATL@@SAPEAUIAtlStringMgr@3@XZ@4V23@A
_BSS	SEGMENT
?strMgr@?1??GetInstance@CAtlStringMgr@ATL@@SAPEAUIAtlStringMgr@3@XZ@4V23@A DB 030H DUP (?) ; `ATL::CAtlStringMgr::GetInstance'::`2'::strMgr
_BSS	ENDS
;	COMDAT ?$TSS1@?1??GetInstance@CAtlStringMgr@ATL@@SAPEAUIAtlStringMgr@3@XZ@4HA
_BSS	SEGMENT
?$TSS1@?1??GetInstance@CAtlStringMgr@ATL@@SAPEAUIAtlStringMgr@3@XZ@4HA DD 01H DUP (?) ; TSS1<`template-parameter-2',ATL::CAtlStringMgr::tInstance,ATL::IAtlStringMgr * __ptr64 * const volatile,void,int, ?? &>
_BSS	ENDS
_BSS	SEGMENT
?staticMetaObject@MoldMachine@@2UQMetaObject@@B DB 030H DUP (?) ; MoldMachine::staticMetaObject
_BSS	ENDS
;	COMDAT pdata
pdata	SEGMENT
$pdata$_vswprintf_s_l DD imagerel $LN5
	DD	imagerel $LN5+111
	DD	imagerel $unwind$_vswprintf_s_l
pdata	ENDS
;	COMDAT pdata
pdata	SEGMENT
$pdata$swprintf_s DD imagerel $LN3
	DD	imagerel $LN3+94
	DD	imagerel $unwind$swprintf_s
pdata	ENDS
;	COMDAT pdata
pdata	SEGMENT
$pdata$HRESULT_FROM_WIN32 DD imagerel $LN5
	DD	imagerel $LN5+53
	DD	imagerel $unwind$HRESULT_FROM_WIN32
pdata	ENDS
;	COMDAT pdata
pdata	SEGMENT
$pdata$??$AtlMultiply@K@ATL@@YAJPEAKKK@Z DD imagerel $LN4
	DD	imagerel $LN4+77
	DD	imagerel $unwind$??$AtlMultiply@K@ATL@@YAJPEAKKK@Z
pdata	ENDS
;	COMDAT pdata
pdata	SEGMENT
$pdata$?Allocate@CCRTAllocator@ATL@@SAPEAX_K@Z DD imagerel $LN3
	DD	imagerel $LN3+25
	DD	imagerel $unwind$?Allocate@CCRTAllocator@ATL@@SAPEAX_K@Z
pdata	ENDS
;	COMDAT pdata
pdata	SEGMENT
$pdata$?Free@CCRTAllocator@ATL@@SAXPEAX@Z DD imagerel $LN3
	DD	imagerel $LN3+25
	DD	imagerel $unwind$?Free@CCRTAllocator@ATL@@SAXPEAX@Z
pdata	ENDS
;	COMDAT pdata
pdata	SEGMENT
$pdata$??$AtlAdd@_K@ATL@@YAJPEA_K_K1@Z DD imagerel $LN4
	DD	imagerel $LN4+81
	DD	imagerel $unwind$??$AtlAdd@_K@ATL@@YAJPEA_K_K1@Z
pdata	ENDS
;	COMDAT pdata
pdata	SEGMENT
$pdata$??0?$CTraceCategoryEx@$0IAAAA@$0A@@ATL@@QEAA@PEB_W@Z DD imagerel $LN3
	DD	imagerel $LN3+39
	DD	imagerel $unwind$??0?$CTraceCategoryEx@$0IAAAA@$0A@@ATL@@QEAA@PEB_W@Z
pdata	ENDS
;	COMDAT pdata
pdata	SEGMENT
$pdata$??0?$CTraceCategoryEx@$00$0A@@ATL@@QEAA@PEB_W@Z DD imagerel $LN3
	DD	imagerel $LN3+39
	DD	imagerel $unwind$??0?$CTraceCategoryEx@$00$0A@@ATL@@QEAA@PEB_W@Z
pdata	ENDS
;	COMDAT pdata
pdata	SEGMENT
$pdata$??__EatlTraceGeneral@ATL@@YAXXZ DD imagerel ??__EatlTraceGeneral@ATL@@YAXXZ
	DD	imagerel ??__EatlTraceGeneral@ATL@@YAXXZ+28
	DD	imagerel $unwind$??__EatlTraceGeneral@ATL@@YAXXZ
pdata	ENDS
;	COMDAT pdata
pdata	SEGMENT
$pdata$??0?$CTraceCategoryEx@$01$0A@@ATL@@QEAA@PEB_W@Z DD imagerel $LN3
	DD	imagerel $LN3+39
	DD	imagerel $unwind$??0?$CTraceCategoryEx@$01$0A@@ATL@@QEAA@PEB_W@Z
pdata	ENDS
;	COMDAT pdata
pdata	SEGMENT
$pdata$??__EatlTraceCOM@ATL@@YAXXZ DD imagerel ??__EatlTraceCOM@ATL@@YAXXZ
	DD	imagerel ??__EatlTraceCOM@ATL@@YAXXZ+28
	DD	imagerel $unwind$??__EatlTraceCOM@ATL@@YAXXZ
pdata	ENDS
;	COMDAT pdata
pdata	SEGMENT
$pdata$??0?$CTraceCategoryEx@$03$0A@@ATL@@QEAA@PEB_W@Z DD imagerel $LN3
	DD	imagerel $LN3+39
	DD	imagerel $unwind$??0?$CTraceCategoryEx@$03$0A@@ATL@@QEAA@PEB_W@Z
pdata	ENDS
;	COMDAT pdata
pdata	SEGMENT
$pdata$??__EatlTraceQI@ATL@@YAXXZ DD imagerel ??__EatlTraceQI@ATL@@YAXXZ
	DD	imagerel ??__EatlTraceQI@ATL@@YAXXZ+28
	DD	imagerel $unwind$??__EatlTraceQI@ATL@@YAXXZ
pdata	ENDS
;	COMDAT pdata
pdata	SEGMENT
$pdata$??0?$CTraceCategoryEx@$07$0A@@ATL@@QEAA@PEB_W@Z DD imagerel $LN3
	DD	imagerel $LN3+39
	DD	imagerel $unwind$??0?$CTraceCategoryEx@$07$0A@@ATL@@QEAA@PEB_W@Z
pdata	ENDS
;	COMDAT pdata
pdata	SEGMENT
$pdata$??__EatlTraceRegistrar@ATL@@YAXXZ DD imagerel ??__EatlTraceRegistrar@ATL@@YAXXZ
	DD	imagerel ??__EatlTraceRegistrar@ATL@@YAXXZ+28
	DD	imagerel $unwind$??__EatlTraceRegistrar@ATL@@YAXXZ
pdata	ENDS
;	COMDAT pdata
pdata	SEGMENT
$pdata$??0?$CTraceCategoryEx@$0BA@$0A@@ATL@@QEAA@PEB_W@Z DD imagerel $LN3
	DD	imagerel $LN3+39
	DD	imagerel $unwind$??0?$CTraceCategoryEx@$0BA@$0A@@ATL@@QEAA@PEB_W@Z
pdata	ENDS
;	COMDAT pdata
pdata	SEGMENT
$pdata$??__EatlTraceRefcount@ATL@@YAXXZ DD imagerel ??__EatlTraceRefcount@ATL@@YAXXZ
	DD	imagerel ??__EatlTraceRefcount@ATL@@YAXXZ+28
	DD	imagerel $unwind$??__EatlTraceRefcount@ATL@@YAXXZ
pdata	ENDS
;	COMDAT pdata
pdata	SEGMENT
$pdata$??0?$CTraceCategoryEx@$0CA@$0A@@ATL@@QEAA@PEB_W@Z DD imagerel $LN3
	DD	imagerel $LN3+39
	DD	imagerel $unwind$??0?$CTraceCategoryEx@$0CA@$0A@@ATL@@QEAA@PEB_W@Z
pdata	ENDS
;	COMDAT pdata
pdata	SEGMENT
$pdata$??__EatlTraceWindowing@ATL@@YAXXZ DD imagerel ??__EatlTraceWindowing@ATL@@YAXXZ
	DD	imagerel ??__EatlTraceWindowing@ATL@@YAXXZ+28
	DD	imagerel $unwind$??__EatlTraceWindowing@ATL@@YAXXZ
pdata	ENDS
;	COMDAT pdata
pdata	SEGMENT
$pdata$??0?$CTraceCategoryEx@$0EA@$0A@@ATL@@QEAA@PEB_W@Z DD imagerel $LN3
	DD	imagerel $LN3+39
	DD	imagerel $unwind$??0?$CTraceCategoryEx@$0EA@$0A@@ATL@@QEAA@PEB_W@Z
pdata	ENDS
;	COMDAT pdata
pdata	SEGMENT
$pdata$??__EatlTraceControls@ATL@@YAXXZ DD imagerel ??__EatlTraceControls@ATL@@YAXXZ
	DD	imagerel ??__EatlTraceControls@ATL@@YAXXZ+28
	DD	imagerel $unwind$??__EatlTraceControls@ATL@@YAXXZ
pdata	ENDS
;	COMDAT pdata
pdata	SEGMENT
$pdata$??0?$CTraceCategoryEx@$0IA@$0A@@ATL@@QEAA@PEB_W@Z DD imagerel $LN3
	DD	imagerel $LN3+39
	DD	imagerel $unwind$??0?$CTraceCategoryEx@$0IA@$0A@@ATL@@QEAA@PEB_W@Z
pdata	ENDS
;	COMDAT pdata
pdata	SEGMENT
$pdata$??__EatlTraceHosting@ATL@@YAXXZ DD imagerel ??__EatlTraceHosting@ATL@@YAXXZ
	DD	imagerel ??__EatlTraceHosting@ATL@@YAXXZ+28
	DD	imagerel $unwind$??__EatlTraceHosting@ATL@@YAXXZ
pdata	ENDS
;	COMDAT pdata
pdata	SEGMENT
$pdata$??0?$CTraceCategoryEx@$0BAA@$0A@@ATL@@QEAA@PEB_W@Z DD imagerel $LN3
	DD	imagerel $LN3+39
	DD	imagerel $unwind$??0?$CTraceCategoryEx@$0BAA@$0A@@ATL@@QEAA@PEB_W@Z
pdata	ENDS
;	COMDAT pdata
pdata	SEGMENT
$pdata$??__EatlTraceDBClient@ATL@@YAXXZ DD imagerel ??__EatlTraceDBClient@ATL@@YAXXZ
	DD	imagerel ??__EatlTraceDBClient@ATL@@YAXXZ+28
	DD	imagerel $unwind$??__EatlTraceDBClient@ATL@@YAXXZ
pdata	ENDS
;	COMDAT pdata
pdata	SEGMENT
$pdata$??0?$CTraceCategoryEx@$0CAA@$0A@@ATL@@QEAA@PEB_W@Z DD imagerel $LN3
	DD	imagerel $LN3+39
	DD	imagerel $unwind$??0?$CTraceCategoryEx@$0CAA@$0A@@ATL@@QEAA@PEB_W@Z
pdata	ENDS
;	COMDAT pdata
pdata	SEGMENT
$pdata$??__EatlTraceDBProvider@ATL@@YAXXZ DD imagerel ??__EatlTraceDBProvider@ATL@@YAXXZ
	DD	imagerel ??__EatlTraceDBProvider@ATL@@YAXXZ+28
	DD	imagerel $unwind$??__EatlTraceDBProvider@ATL@@YAXXZ
pdata	ENDS
;	COMDAT pdata
pdata	SEGMENT
$pdata$??0?$CTraceCategoryEx@$0EAA@$0A@@ATL@@QEAA@PEB_W@Z DD imagerel $LN3
	DD	imagerel $LN3+39
	DD	imagerel $unwind$??0?$CTraceCategoryEx@$0EAA@$0A@@ATL@@QEAA@PEB_W@Z
pdata	ENDS
;	COMDAT pdata
pdata	SEGMENT
$pdata$??__EatlTraceSnapin@ATL@@YAXXZ DD imagerel ??__EatlTraceSnapin@ATL@@YAXXZ
	DD	imagerel ??__EatlTraceSnapin@ATL@@YAXXZ+28
	DD	imagerel $unwind$??__EatlTraceSnapin@ATL@@YAXXZ
pdata	ENDS
;	COMDAT pdata
pdata	SEGMENT
$pdata$??0?$CTraceCategoryEx@$0IAA@$0A@@ATL@@QEAA@PEB_W@Z DD imagerel $LN3
	DD	imagerel $LN3+39
	DD	imagerel $unwind$??0?$CTraceCategoryEx@$0IAA@$0A@@ATL@@QEAA@PEB_W@Z
pdata	ENDS
;	COMDAT pdata
pdata	SEGMENT
$pdata$??__EatlTraceNotImpl@ATL@@YAXXZ DD imagerel ??__EatlTraceNotImpl@ATL@@YAXXZ
	DD	imagerel ??__EatlTraceNotImpl@ATL@@YAXXZ+28
	DD	imagerel $unwind$??__EatlTraceNotImpl@ATL@@YAXXZ
pdata	ENDS
;	COMDAT pdata
pdata	SEGMENT
$pdata$??0?$CTraceCategoryEx@$0BAAA@$0A@@ATL@@QEAA@PEB_W@Z DD imagerel $LN3
	DD	imagerel $LN3+39
	DD	imagerel $unwind$??0?$CTraceCategoryEx@$0BAAA@$0A@@ATL@@QEAA@PEB_W@Z
pdata	ENDS
;	COMDAT pdata
pdata	SEGMENT
$pdata$??__EatlTraceAllocation@ATL@@YAXXZ DD imagerel ??__EatlTraceAllocation@ATL@@YAXXZ
	DD	imagerel ??__EatlTraceAllocation@ATL@@YAXXZ+28
	DD	imagerel $unwind$??__EatlTraceAllocation@ATL@@YAXXZ
pdata	ENDS
;	COMDAT pdata
pdata	SEGMENT
$pdata$??0?$CTraceCategoryEx@$0CAAA@$0A@@ATL@@QEAA@PEB_W@Z DD imagerel $LN3
	DD	imagerel $LN3+39
	DD	imagerel $unwind$??0?$CTraceCategoryEx@$0CAAA@$0A@@ATL@@QEAA@PEB_W@Z
pdata	ENDS
;	COMDAT pdata
pdata	SEGMENT
$pdata$??__EatlTraceException@ATL@@YAXXZ DD imagerel ??__EatlTraceException@ATL@@YAXXZ
	DD	imagerel ??__EatlTraceException@ATL@@YAXXZ+28
	DD	imagerel $unwind$??__EatlTraceException@ATL@@YAXXZ
pdata	ENDS
;	COMDAT pdata
pdata	SEGMENT
$pdata$??0?$CTraceCategoryEx@$0EAAA@$0A@@ATL@@QEAA@PEB_W@Z DD imagerel $LN3
	DD	imagerel $LN3+39
	DD	imagerel $unwind$??0?$CTraceCategoryEx@$0EAAA@$0A@@ATL@@QEAA@PEB_W@Z
pdata	ENDS
;	COMDAT pdata
pdata	SEGMENT
$pdata$??__EatlTraceTime@ATL@@YAXXZ DD imagerel ??__EatlTraceTime@ATL@@YAXXZ
	DD	imagerel ??__EatlTraceTime@ATL@@YAXXZ+28
	DD	imagerel $unwind$??__EatlTraceTime@ATL@@YAXXZ
pdata	ENDS
;	COMDAT pdata
pdata	SEGMENT
$pdata$??0?$CTraceCategoryEx@$0IAAA@$0A@@ATL@@QEAA@PEB_W@Z DD imagerel $LN3
	DD	imagerel $LN3+39
	DD	imagerel $unwind$??0?$CTraceCategoryEx@$0IAAA@$0A@@ATL@@QEAA@PEB_W@Z
pdata	ENDS
;	COMDAT pdata
pdata	SEGMENT
$pdata$??__EatlTraceCache@ATL@@YAXXZ DD imagerel ??__EatlTraceCache@ATL@@YAXXZ
	DD	imagerel ??__EatlTraceCache@ATL@@YAXXZ+28
	DD	imagerel $unwind$??__EatlTraceCache@ATL@@YAXXZ
pdata	ENDS
;	COMDAT pdata
pdata	SEGMENT
$pdata$??0?$CTraceCategoryEx@$0BAAAA@$0A@@ATL@@QEAA@PEB_W@Z DD imagerel $LN3
	DD	imagerel $LN3+39
	DD	imagerel $unwind$??0?$CTraceCategoryEx@$0BAAAA@$0A@@ATL@@QEAA@PEB_W@Z
pdata	ENDS
;	COMDAT pdata
pdata	SEGMENT
$pdata$??__EatlTraceStencil@ATL@@YAXXZ DD imagerel ??__EatlTraceStencil@ATL@@YAXXZ
	DD	imagerel ??__EatlTraceStencil@ATL@@YAXXZ+28
	DD	imagerel $unwind$??__EatlTraceStencil@ATL@@YAXXZ
pdata	ENDS
;	COMDAT pdata
pdata	SEGMENT
$pdata$??0?$CTraceCategoryEx@$0CAAAA@$0A@@ATL@@QEAA@PEB_W@Z DD imagerel $LN3
	DD	imagerel $LN3+39
	DD	imagerel $unwind$??0?$CTraceCategoryEx@$0CAAAA@$0A@@ATL@@QEAA@PEB_W@Z
pdata	ENDS
;	COMDAT pdata
pdata	SEGMENT
$pdata$??__EatlTraceString@ATL@@YAXXZ DD imagerel ??__EatlTraceString@ATL@@YAXXZ
	DD	imagerel ??__EatlTraceString@ATL@@YAXXZ+28
	DD	imagerel $unwind$??__EatlTraceString@ATL@@YAXXZ
pdata	ENDS
;	COMDAT pdata
pdata	SEGMENT
$pdata$??0?$CTraceCategoryEx@$0EAAAA@$0A@@ATL@@QEAA@PEB_W@Z DD imagerel $LN3
	DD	imagerel $LN3+39
	DD	imagerel $unwind$??0?$CTraceCategoryEx@$0EAAAA@$0A@@ATL@@QEAA@PEB_W@Z
pdata	ENDS
;	COMDAT pdata
pdata	SEGMENT
$pdata$??__EatlTraceMap@ATL@@YAXXZ DD imagerel ??__EatlTraceMap@ATL@@YAXXZ
	DD	imagerel ??__EatlTraceMap@ATL@@YAXXZ+28
	DD	imagerel $unwind$??__EatlTraceMap@ATL@@YAXXZ
pdata	ENDS
;	COMDAT pdata
pdata	SEGMENT
$pdata$??__EatlTraceUtil@ATL@@YAXXZ DD imagerel ??__EatlTraceUtil@ATL@@YAXXZ
	DD	imagerel ??__EatlTraceUtil@ATL@@YAXXZ+28
	DD	imagerel $unwind$??__EatlTraceUtil@ATL@@YAXXZ
pdata	ENDS
;	COMDAT pdata
pdata	SEGMENT
$pdata$??0?$CTraceCategoryEx@$0BAAAAA@$0A@@ATL@@QEAA@PEB_W@Z DD imagerel $LN3
	DD	imagerel $LN3+39
	DD	imagerel $unwind$??0?$CTraceCategoryEx@$0BAAAAA@$0A@@ATL@@QEAA@PEB_W@Z
pdata	ENDS
;	COMDAT pdata
pdata	SEGMENT
$pdata$??__EatlTraceSecurity@ATL@@YAXXZ DD imagerel ??__EatlTraceSecurity@ATL@@YAXXZ
	DD	imagerel ??__EatlTraceSecurity@ATL@@YAXXZ+28
	DD	imagerel $unwind$??__EatlTraceSecurity@ATL@@YAXXZ
pdata	ENDS
;	COMDAT pdata
pdata	SEGMENT
$pdata$??0?$CTraceCategoryEx@$0CAAAAA@$0A@@ATL@@QEAA@PEB_W@Z DD imagerel $LN3
	DD	imagerel $LN3+39
	DD	imagerel $unwind$??0?$CTraceCategoryEx@$0CAAAAA@$0A@@ATL@@QEAA@PEB_W@Z
pdata	ENDS
;	COMDAT pdata
pdata	SEGMENT
$pdata$??__EatlTraceSync@ATL@@YAXXZ DD imagerel ??__EatlTraceSync@ATL@@YAXXZ
	DD	imagerel ??__EatlTraceSync@ATL@@YAXXZ+28
	DD	imagerel $unwind$??__EatlTraceSync@ATL@@YAXXZ
pdata	ENDS
;	COMDAT pdata
pdata	SEGMENT
$pdata$??0?$CTraceCategoryEx@$0EAAAAA@$0A@@ATL@@QEAA@PEB_W@Z DD imagerel $LN3
	DD	imagerel $LN3+39
	DD	imagerel $unwind$??0?$CTraceCategoryEx@$0EAAAAA@$0A@@ATL@@QEAA@PEB_W@Z
pdata	ENDS
;	COMDAT pdata
pdata	SEGMENT
$pdata$??__EatlTraceISAPI@ATL@@YAXXZ DD imagerel ??__EatlTraceISAPI@ATL@@YAXXZ
	DD	imagerel ??__EatlTraceISAPI@ATL@@YAXXZ+28
	DD	imagerel $unwind$??__EatlTraceISAPI@ATL@@YAXXZ
pdata	ENDS
;	COMDAT pdata
pdata	SEGMENT
$pdata$?GetCategoryName@CTrace@ATL@@CAPEA_WI@Z DD imagerel $LN7
	DD	imagerel $LN7+95
	DD	imagerel $unwind$?GetCategoryName@CTrace@ATL@@CAPEA_WI@Z
pdata	ENDS
;	COMDAT pdata
pdata	SEGMENT
$pdata$?TraceV@CTrace@ATL@@CAXPEBDHIIPEB_W@Z DD imagerel $LN13
	DD	imagerel $LN13+597
	DD	imagerel $unwind$?TraceV@CTrace@ATL@@CAXPEBDHIIPEB_W@Z
pdata	ENDS
;	COMDAT pdata
pdata	SEGMENT
$pdata$?TraceV@CTrace@ATL@@SAXPEBDHIIPEB_WPEAD@Z DD imagerel $LN7
	DD	imagerel $LN7+396
	DD	imagerel $unwind$?TraceV@CTrace@ATL@@SAXPEBDHIIPEB_WPEAD@Z
pdata	ENDS
;	COMDAT pdata
pdata	SEGMENT
$pdata$?dtor$0@?0??TraceV@CTrace@ATL@@SAXPEBDHIIPEB_WPEAD@Z@4HA DD imagerel ?dtor$0@?0??TraceV@CTrace@ATL@@SAXPEBDHIIPEB_WPEAD@Z@4HA
	DD	imagerel ?dtor$0@?0??TraceV@CTrace@ATL@@SAXPEBDHIIPEB_WPEAD@Z@4HA+24
	DD	imagerel $unwind$?dtor$0@?0??TraceV@CTrace@ATL@@SAXPEBDHIIPEB_WPEAD@Z@4HA
pdata	ENDS
;	COMDAT pdata
pdata	SEGMENT
$pdata$?RegisterCategory@CTrace@ATL@@SAXPEB_WI@Z DD imagerel $LN6
	DD	imagerel $LN6+192
	DD	imagerel $unwind$?RegisterCategory@CTrace@ATL@@SAXPEB_WI@Z
pdata	ENDS
;	COMDAT pdata
pdata	SEGMENT
$pdata$??1?$CHeapPtrBase@_WVCCRTAllocator@ATL@@@ATL@@QEAA@XZ DD imagerel $LN3
	DD	imagerel $LN3+24
	DD	imagerel $unwind$??1?$CHeapPtrBase@_WVCCRTAllocator@ATL@@@ATL@@QEAA@XZ
pdata	ENDS
;	COMDAT pdata
pdata	SEGMENT
$pdata$?AllocateBytes@?$CHeapPtrBase@_WVCCRTAllocator@ATL@@@ATL@@QEAA_N_K@Z DD imagerel $LN5
	DD	imagerel $LN5+124
	DD	imagerel $unwind$?AllocateBytes@?$CHeapPtrBase@_WVCCRTAllocator@ATL@@@ATL@@QEAA_N_K@Z
pdata	ENDS
;	COMDAT pdata
pdata	SEGMENT
$pdata$?Free@?$CHeapPtrBase@_WVCCRTAllocator@ATL@@@ATL@@QEAAXXZ DD imagerel $LN3
	DD	imagerel $LN3+39
	DD	imagerel $unwind$?Free@?$CHeapPtrBase@_WVCCRTAllocator@ATL@@@ATL@@QEAAXXZ
pdata	ENDS
;	COMDAT pdata
pdata	SEGMENT
$pdata$??0?$CHeapPtr@_WVCCRTAllocator@ATL@@@ATL@@QEAA@XZ DD imagerel $LN3
	DD	imagerel $LN3+29
	DD	imagerel $unwind$??0?$CHeapPtr@_WVCCRTAllocator@ATL@@@ATL@@QEAA@XZ
pdata	ENDS
;	COMDAT pdata
pdata	SEGMENT
$pdata$?Allocate@?$CHeapPtr@_WVCCRTAllocator@ATL@@@ATL@@QEAA_N_K@Z DD imagerel $LN4
	DD	imagerel $LN4+72
	DD	imagerel $unwind$?Allocate@?$CHeapPtr@_WVCCRTAllocator@ATL@@@ATL@@QEAA_N_K@Z
pdata	ENDS
;	COMDAT pdata
pdata	SEGMENT
$pdata$??1?$CHeapPtr@_WVCCRTAllocator@ATL@@@ATL@@QEAA@XZ DD imagerel $LN3
	DD	imagerel $LN3+24
	DD	imagerel $unwind$??1?$CHeapPtr@_WVCCRTAllocator@ATL@@@ATL@@QEAA@XZ
pdata	ENDS
;	COMDAT pdata
pdata	SEGMENT
$pdata$??0CPreserveLastError@ATL@@QEAA@XZ DD imagerel $LN3
	DD	imagerel $LN3+32
	DD	imagerel $unwind$??0CPreserveLastError@ATL@@QEAA@XZ
pdata	ENDS
;	COMDAT pdata
pdata	SEGMENT
$pdata$??1CPreserveLastError@ATL@@QEAA@XZ DD imagerel $LN3
	DD	imagerel $LN3+27
	DD	imagerel $unwind$??1CPreserveLastError@ATL@@QEAA@XZ
pdata	ENDS
;	COMDAT pdata
pdata	SEGMENT
$pdata$??RCTraceFileAndLineInfo@ATL@@QEBAXHIPEB_WZZ DD imagerel $LN4
	DD	imagerel $LN4+136
	DD	imagerel $unwind$??RCTraceFileAndLineInfo@ATL@@QEBAXHIPEB_WZZ
pdata	ENDS
;	COMDAT pdata
pdata	SEGMENT
$pdata$?dtor$0@?0???RCTraceFileAndLineInfo@ATL@@QEBAXHIPEB_WZZ@4HA DD imagerel ?dtor$0@?0???RCTraceFileAndLineInfo@ATL@@QEBAXHIPEB_WZZ@4HA
	DD	imagerel ?dtor$0@?0???RCTraceFileAndLineInfo@ATL@@QEBAXHIPEB_WZZ@4HA+24
	DD	imagerel $unwind$?dtor$0@?0???RCTraceFileAndLineInfo@ATL@@QEBAXHIPEB_WZZ@4HA
pdata	ENDS
;	COMDAT pdata
pdata	SEGMENT
$pdata$?_AtlRaiseException@ATL@@YAXKK@Z DD imagerel $LN3
	DD	imagerel $LN3+37
	DD	imagerel $unwind$?_AtlRaiseException@ATL@@YAXKK@Z
pdata	ENDS
;	COMDAT pdata
pdata	SEGMENT
$pdata$?_AtlInitializeCriticalSectionEx@ATL@@YAHPEAU_RTL_CRITICAL_SECTION@@KK@Z DD imagerel $LN3
	DD	imagerel $LN3+43
	DD	imagerel $unwind$?_AtlInitializeCriticalSectionEx@ATL@@YAHPEAU_RTL_CRITICAL_SECTION@@KK@Z
pdata	ENDS
;	COMDAT pdata
pdata	SEGMENT
$pdata$??0CComCriticalSection@ATL@@QEAA@XZ DD imagerel $LN3
	DD	imagerel $LN3+40
	DD	imagerel $unwind$??0CComCriticalSection@ATL@@QEAA@XZ
pdata	ENDS
;	COMDAT pdata
pdata	SEGMENT
$pdata$?Init@CComCriticalSection@ATL@@QEAAJXZ DD imagerel $LN4
	DD	imagerel $LN4+65
	DD	imagerel $unwind$?Init@CComCriticalSection@ATL@@QEAAJXZ
pdata	ENDS
;	COMDAT pdata
pdata	SEGMENT
$pdata$?Term@CComCriticalSection@ATL@@QEAAJXZ DD imagerel $LN3
	DD	imagerel $LN3+30
	DD	imagerel $unwind$?Term@CComCriticalSection@ATL@@QEAAJXZ
pdata	ENDS
;	COMDAT pdata
pdata	SEGMENT
$pdata$??0_ATL_COM_MODULE70@ATL@@QEAA@XZ DD imagerel $LN3
	DD	imagerel $LN3+36
	DD	imagerel $unwind$??0_ATL_COM_MODULE70@ATL@@QEAA@XZ
pdata	ENDS
;	COMDAT pdata
pdata	SEGMENT
$pdata$??1_ATL_COM_MODULE70@ATL@@QEAA@XZ DD imagerel $LN3
	DD	imagerel $LN3+31
	DD	imagerel $unwind$??1_ATL_COM_MODULE70@ATL@@QEAA@XZ
pdata	ENDS
;	COMDAT pdata
pdata	SEGMENT
$pdata$??1?$CSimpleArray@GV?$CSimpleArrayEqualHelper@G@ATL@@@ATL@@QEAA@XZ DD imagerel $LN3
	DD	imagerel $LN3+34
	DD	imagerel $unwind$??1?$CSimpleArray@GV?$CSimpleArrayEqualHelper@G@ATL@@@ATL@@QEAA@XZ
pdata	ENDS
;	COMDAT pdata
pdata	SEGMENT
$pdata$?RemoveAll@?$CSimpleArray@GV?$CSimpleArrayEqualHelper@G@ATL@@@ATL@@QEAAXXZ DD imagerel $LN7
	DD	imagerel $LN7+111
	DD	imagerel $unwind$?RemoveAll@?$CSimpleArray@GV?$CSimpleArrayEqualHelper@G@ATL@@@ATL@@QEAAXXZ
pdata	ENDS
;	COMDAT pdata
pdata	SEGMENT
$pdata$??A?$CSimpleArray@GV?$CSimpleArrayEqualHelper@G@ATL@@@ATL@@QEAAAEAGH@Z DD imagerel $LN7
	DD	imagerel $LN7+151
	DD	imagerel $unwind$??A?$CSimpleArray@GV?$CSimpleArrayEqualHelper@G@ATL@@@ATL@@QEAAAEAGH@Z
pdata	ENDS
;	COMDAT pdata
pdata	SEGMENT
$pdata$??0_ATL_WIN_MODULE70@ATL@@QEAA@XZ DD imagerel $LN5
	DD	imagerel $LN5+64
	DD	imagerel $unwind$??0_ATL_WIN_MODULE70@ATL@@QEAA@XZ
pdata	ENDS
;	COMDAT pdata
pdata	SEGMENT
$pdata$?dtor$0@?0???0_ATL_WIN_MODULE70@ATL@@QEAA@XZ@4HA DD imagerel ?dtor$0@?0???0_ATL_WIN_MODULE70@ATL@@QEAA@XZ@4HA
	DD	imagerel ?dtor$0@?0???0_ATL_WIN_MODULE70@ATL@@QEAA@XZ@4HA+28
	DD	imagerel $unwind$?dtor$0@?0???0_ATL_WIN_MODULE70@ATL@@QEAA@XZ@4HA
pdata	ENDS
;	COMDAT pdata
pdata	SEGMENT
$pdata$??1_ATL_WIN_MODULE70@ATL@@QEAA@XZ DD imagerel $LN3
	DD	imagerel $LN3+48
	DD	imagerel $unwind$??1_ATL_WIN_MODULE70@ATL@@QEAA@XZ
pdata	ENDS
;	COMDAT pdata
pdata	SEGMENT
$pdata$?AtlWinModuleInit@ATL@@YAJPEAU_ATL_WIN_MODULE70@1@@Z DD imagerel $LN7
	DD	imagerel $LN7+232
	DD	imagerel $unwind$?AtlWinModuleInit@ATL@@YAJPEAU_ATL_WIN_MODULE70@1@@Z
pdata	ENDS
;	COMDAT pdata
pdata	SEGMENT
$pdata$?AtlWinModuleTerm@ATL@@YAJPEAU_ATL_WIN_MODULE70@1@PEAUHINSTANCE__@@@Z DD imagerel $LN9
	DD	imagerel $LN9+206
	DD	imagerel $unwind$?AtlWinModuleTerm@ATL@@YAJPEAU_ATL_WIN_MODULE70@1@PEAUHINSTANCE__@@@Z
pdata	ENDS
;	COMDAT pdata
pdata	SEGMENT
$pdata$??0CAtlComModule@ATL@@QEAA@XZ DD imagerel $LN5
	DD	imagerel $LN5+265
	DD	imagerel $unwind$??0CAtlComModule@ATL@@QEAA@XZ
pdata	ENDS
;	COMDAT pdata
pdata	SEGMENT
$pdata$??1CAtlComModule@ATL@@QEAA@XZ DD imagerel $LN3
	DD	imagerel $LN3+45
	DD	imagerel $unwind$??1CAtlComModule@ATL@@QEAA@XZ
pdata	ENDS
;	COMDAT pdata
pdata	SEGMENT
$pdata$?Term@CAtlComModule@ATL@@QEAAXXZ DD imagerel $LN9
	DD	imagerel $LN9+191
	DD	imagerel $unwind$?Term@CAtlComModule@ATL@@QEAAXXZ
pdata	ENDS
;	COMDAT pdata
pdata	SEGMENT
$pdata$??__E_AtlComModule@ATL@@YAXXZ DD imagerel ??__E_AtlComModule@ATL@@YAXXZ
	DD	imagerel ??__E_AtlComModule@ATL@@YAXXZ+33
	DD	imagerel $unwind$??__E_AtlComModule@ATL@@YAXXZ
pdata	ENDS
;	COMDAT pdata
pdata	SEGMENT
$pdata$??__F_AtlComModule@ATL@@YAXXZ DD imagerel ??__F_AtlComModule@ATL@@YAXXZ
	DD	imagerel ??__F_AtlComModule@ATL@@YAXXZ+21
	DD	imagerel $unwind$??__F_AtlComModule@ATL@@YAXXZ
pdata	ENDS
;	COMDAT pdata
pdata	SEGMENT
$pdata$??0CAtlWinModule@ATL@@QEAA@XZ DD imagerel $LN6
	DD	imagerel $LN6+144
	DD	imagerel $unwind$??0CAtlWinModule@ATL@@QEAA@XZ
pdata	ENDS
;	COMDAT pdata
pdata	SEGMENT
$pdata$??1CAtlWinModule@ATL@@QEAA@XZ DD imagerel $LN3
	DD	imagerel $LN3+45
	DD	imagerel $unwind$??1CAtlWinModule@ATL@@QEAA@XZ
pdata	ENDS
;	COMDAT pdata
pdata	SEGMENT
$pdata$?Term@CAtlWinModule@ATL@@QEAAXXZ DD imagerel $LN3
	DD	imagerel $LN3+39
	DD	imagerel $unwind$?Term@CAtlWinModule@ATL@@QEAAXXZ
pdata	ENDS
;	COMDAT pdata
pdata	SEGMENT
$pdata$??__E_AtlWinModule@ATL@@YAXXZ DD imagerel ??__E_AtlWinModule@ATL@@YAXXZ
	DD	imagerel ??__E_AtlWinModule@ATL@@YAXXZ+33
	DD	imagerel $unwind$??__E_AtlWinModule@ATL@@YAXXZ
pdata	ENDS
;	COMDAT pdata
pdata	SEGMENT
$pdata$??__F_AtlWinModule@ATL@@YAXXZ DD imagerel ??__F_AtlWinModule@ATL@@YAXXZ
	DD	imagerel ??__F_AtlWinModule@ATL@@YAXXZ+21
	DD	imagerel $unwind$??__F_AtlWinModule@ATL@@YAXXZ
pdata	ENDS
;	COMDAT pdata
pdata	SEGMENT
$pdata$??0CWin32Heap@ATL@@QEAA@PEAX@Z DD imagerel $LN4
	DD	imagerel $LN4+129
	DD	imagerel $unwind$??0CWin32Heap@ATL@@QEAA@PEAX@Z
pdata	ENDS
;	COMDAT pdata
pdata	SEGMENT
$pdata$??1CWin32Heap@ATL@@UEAA@XZ DD imagerel $LN5
	DD	imagerel $LN5+139
	DD	imagerel $unwind$??1CWin32Heap@ATL@@UEAA@XZ
pdata	ENDS
;	COMDAT pdata
pdata	SEGMENT
$pdata$?Allocate@CWin32Heap@ATL@@UEAAPEAX_K@Z DD imagerel $LN3
	DD	imagerel $LN3+41
	DD	imagerel $unwind$?Allocate@CWin32Heap@ATL@@UEAAPEAX_K@Z
pdata	ENDS
;	COMDAT pdata
pdata	SEGMENT
$pdata$?Free@CWin32Heap@ATL@@UEAAXPEAX@Z DD imagerel $LN5
	DD	imagerel $LN5+119
	DD	imagerel $unwind$?Free@CWin32Heap@ATL@@UEAAXPEAX@Z
pdata	ENDS
;	COMDAT pdata
pdata	SEGMENT
$pdata$?Reallocate@CWin32Heap@ATL@@UEAAPEAXPEAX_K@Z DD imagerel $LN5
	DD	imagerel $LN5+114
	DD	imagerel $unwind$?Reallocate@CWin32Heap@ATL@@UEAAPEAXPEAX_K@Z
pdata	ENDS
;	COMDAT pdata
pdata	SEGMENT
$pdata$?GetSize@CWin32Heap@ATL@@UEAA_KPEAX@Z DD imagerel $LN3
	DD	imagerel $LN3+41
	DD	imagerel $unwind$?GetSize@CWin32Heap@ATL@@UEAA_KPEAX@Z
pdata	ENDS
;	COMDAT pdata
pdata	SEGMENT
$pdata$??_GCWin32Heap@ATL@@UEAAPEAXI@Z DD imagerel $LN4
	DD	imagerel $LN4+59
	DD	imagerel $unwind$??_GCWin32Heap@ATL@@UEAAPEAXI@Z
pdata	ENDS
;	COMDAT pdata
pdata	SEGMENT
$pdata$??$AtlMultiply@_K@ATL@@YAJPEA_K_K1@Z DD imagerel $LN5
	DD	imagerel $LN5+102
	DD	imagerel $unwind$??$AtlMultiply@_K@ATL@@YAJPEA_K_K1@Z
pdata	ENDS
;	COMDAT pdata
pdata	SEGMENT
$pdata$??$AtlAdd@H@ATL@@YAJPEAHHH@Z DD imagerel $LN4
	DD	imagerel $LN4+71
	DD	imagerel $unwind$??$AtlAdd@H@ATL@@YAJPEAHHH@Z
pdata	ENDS
;	COMDAT pdata
pdata	SEGMENT
$pdata$?AddRef@CStringData@ATL@@QEAAXXZ DD imagerel $LN4
	DD	imagerel $LN4+96
	DD	imagerel $unwind$?AddRef@CStringData@ATL@@QEAAXXZ
pdata	ENDS
;	COMDAT pdata
pdata	SEGMENT
$pdata$?SetManager@CNilStringData@ATL@@QEAAXPEAUIAtlStringMgr@2@@Z DD imagerel $LN4
	DD	imagerel $LN4+102
	DD	imagerel $unwind$?SetManager@CNilStringData@ATL@@QEAAXPEAUIAtlStringMgr@2@@Z
pdata	ENDS
;	COMDAT pdata
pdata	SEGMENT
$pdata$??0CAtlStringMgr@ATL@@QEAA@PEAUIAtlMemMgr@1@@Z DD imagerel $LN3
	DD	imagerel $LN3+92
	DD	imagerel $unwind$??0CAtlStringMgr@ATL@@QEAA@PEAUIAtlMemMgr@1@@Z
pdata	ENDS
;	COMDAT pdata
pdata	SEGMENT
$pdata$?GetInstance@CAtlStringMgr@ATL@@SAPEAUIAtlStringMgr@2@XZ DD imagerel $LN5
	DD	imagerel $LN5+220
	DD	imagerel $unwind$?GetInstance@CAtlStringMgr@ATL@@SAPEAUIAtlStringMgr@2@XZ
pdata	ENDS
;	COMDAT pdata
pdata	SEGMENT
$pdata$?Allocate@CAtlStringMgr@ATL@@UEAAPEAUCStringData@2@HH@Z DD imagerel $LN21
	DD	imagerel $LN21+475
	DD	imagerel $unwind$?Allocate@CAtlStringMgr@ATL@@UEAAPEAUCStringData@2@HH@Z
pdata	ENDS
;	COMDAT pdata
pdata	SEGMENT
$pdata$?Free@CAtlStringMgr@ATL@@UEAAXPEAUCStringData@2@@Z DD imagerel $LN8
	DD	imagerel $LN8+195
	DD	imagerel $unwind$?Free@CAtlStringMgr@ATL@@UEAAXPEAUCStringData@2@@Z
pdata	ENDS
;	COMDAT pdata
pdata	SEGMENT
$pdata$?Reallocate@CAtlStringMgr@ATL@@UEAAPEAUCStringData@2@PEAU32@HH@Z DD imagerel $LN22
	DD	imagerel $LN22+572
	DD	imagerel $unwind$?Reallocate@CAtlStringMgr@ATL@@UEAAPEAUCStringData@2@PEAU32@HH@Z
pdata	ENDS
;	COMDAT pdata
pdata	SEGMENT
$pdata$?GetNilString@CAtlStringMgr@ATL@@UEAAPEAUCStringData@2@XZ DD imagerel $LN3
	DD	imagerel $LN3+40
	DD	imagerel $unwind$?GetNilString@CAtlStringMgr@ATL@@UEAAPEAUCStringData@2@XZ
pdata	ENDS
;	COMDAT pdata
pdata	SEGMENT
$pdata$?StaticInitialize@CAtlStringMgr@ATL@@CA_NXZ DD imagerel $LN3
	DD	imagerel $LN3+16
	DD	imagerel $unwind$?StaticInitialize@CAtlStringMgr@ATL@@CA_NXZ
pdata	ENDS
;	COMDAT pdata
pdata	SEGMENT
$pdata$??_GCAtlStringMgr@ATL@@UEAAPEAXI@Z DD imagerel $LN4
	DD	imagerel $LN4+59
	DD	imagerel $unwind$??_GCAtlStringMgr@ATL@@UEAAPEAXI@Z
pdata	ENDS
;	COMDAT pdata
pdata	SEGMENT
$pdata$??__FstrHeap@?1??GetInstance@CAtlStringMgr@ATL@@SAPEAUIAtlStringMgr@2@XZ@YAXXZ DD imagerel $LN3
	DD	imagerel $LN3+21
	DD	imagerel $unwind$??__FstrHeap@?1??GetInstance@CAtlStringMgr@ATL@@SAPEAUIAtlStringMgr@2@XZ@YAXXZ
pdata	ENDS
;	COMDAT pdata
pdata	SEGMENT
$pdata$??__FstrMgr@?1??GetInstance@CAtlStringMgr@ATL@@SAPEAUIAtlStringMgr@2@XZ@YAXXZ DD imagerel $LN3
	DD	imagerel $LN3+21
	DD	imagerel $unwind$??__FstrMgr@?1??GetInstance@CAtlStringMgr@ATL@@SAPEAUIAtlStringMgr@2@XZ@YAXXZ
pdata	ENDS
;	COMDAT pdata
pdata	SEGMENT
$pdata$??$AtlAdd@K@ATL@@YAJPEAKKK@Z DD imagerel $LN4
	DD	imagerel $LN4+71
	DD	imagerel $unwind$??$AtlAdd@K@ATL@@YAJPEAKKK@Z
pdata	ENDS
;	COMDAT pdata
pdata	SEGMENT
$pdata$??__E?isInitialized@CAtlStringMgr@ATL@@0_NA@@YAXXZ DD imagerel ??__E?isInitialized@CAtlStringMgr@ATL@@0_NA@@YAXXZ
	DD	imagerel ??__E?isInitialized@CAtlStringMgr@ATL@@0_NA@@YAXXZ+20
	DD	imagerel $unwind$??__E?isInitialized@CAtlStringMgr@ATL@@0_NA@@YAXXZ
pdata	ENDS
pdata	SEGMENT
$pdata$?metaObject@MoldMachine@@UEBAPEBUQMetaObject@@XZ DD imagerel $LN5
	DD	imagerel $LN5+88
	DD	imagerel $unwind$?metaObject@MoldMachine@@UEBAPEBUQMetaObject@@XZ
$pdata$?qt_metacast@MoldMachine@@UEAAPEAXPEBD@Z DD imagerel $LN5
	DD	imagerel $LN5+75
	DD	imagerel $unwind$?qt_metacast@MoldMachine@@UEAAPEAXPEBD@Z
$pdata$?qt_metacall@MoldMachine@@UEAAHW4Call@QMetaObject@@HPEAPEAX@Z DD imagerel $LN9
	DD	imagerel $LN9+174
	DD	imagerel $unwind$?qt_metacall@MoldMachine@@UEAAHW4Call@QMetaObject@@HPEAPEAX@Z
$pdata$?qt_static_metacall@MoldMachine@@CAXPEAVQObject@@W4Call@QMetaObject@@HPEAPEAX@Z DD imagerel $LN25
	DD	imagerel $LN25+548
	DD	imagerel $unwind$?qt_static_metacall@MoldMachine@@CAXPEAVQObject@@W4Call@QMetaObject@@HPEAPEAX@Z
pdata	ENDS
;	COMDAT CRT$XCU
CRT$XCU	SEGMENT
?atlTraceGeneral$initializer$@ATL@@3P6AXXZEA DQ FLAT:??__EatlTraceGeneral@ATL@@YAXXZ ; ATL::atlTraceGeneral$initializer$
CRT$XCU	ENDS
;	COMDAT ??_R1A@?0A@EA@CAtlStringMgr@ATL@@8
rdata$r	SEGMENT
??_R1A@?0A@EA@CAtlStringMgr@ATL@@8 DD imagerel ??_R0?AVCAtlStringMgr@ATL@@@8 ; ATL::CAtlStringMgr::`RTTI Base Class Descriptor at (0,-1,0,64)'
	DD	01H
	DD	00H
	DD	0ffffffffH
	DD	00H
	DD	040H
	DD	imagerel ??_R3CAtlStringMgr@ATL@@8
rdata$r	ENDS
;	COMDAT ??_R2CAtlStringMgr@ATL@@8
rdata$r	SEGMENT
??_R2CAtlStringMgr@ATL@@8 DD imagerel ??_R1A@?0A@EA@CAtlStringMgr@ATL@@8 ; ATL::CAtlStringMgr::`RTTI Base Class Array'
	DD	imagerel ??_R1A@?0A@EA@IAtlStringMgr@ATL@@8
	ORG $+3
rdata$r	ENDS
;	COMDAT ??_R3CAtlStringMgr@ATL@@8
rdata$r	SEGMENT
??_R3CAtlStringMgr@ATL@@8 DD 00H			; ATL::CAtlStringMgr::`RTTI Class Hierarchy Descriptor'
	DD	00H
	DD	02H
	DD	imagerel ??_R2CAtlStringMgr@ATL@@8
rdata$r	ENDS
;	COMDAT ??_R0?AVCAtlStringMgr@ATL@@@8
data$r	SEGMENT
??_R0?AVCAtlStringMgr@ATL@@@8 DQ FLAT:??_7type_info@@6B@ ; ATL::CAtlStringMgr `RTTI Type Descriptor'
	DQ	0000000000000000H
	DB	'.?AVCAtlStringMgr@ATL@@', 00H
data$r	ENDS
;	COMDAT ??_R4CAtlStringMgr@ATL@@6B@
rdata$r	SEGMENT
??_R4CAtlStringMgr@ATL@@6B@ DD 01H			; ATL::CAtlStringMgr::`RTTI Complete Object Locator'
	DD	00H
	DD	00H
	DD	imagerel ??_R0?AVCAtlStringMgr@ATL@@@8
	DD	imagerel ??_R3CAtlStringMgr@ATL@@8
	DD	imagerel ??_R4CAtlStringMgr@ATL@@6B@
rdata$r	ENDS
;	COMDAT ??_R2IAtlStringMgr@ATL@@8
rdata$r	SEGMENT
??_R2IAtlStringMgr@ATL@@8 DD imagerel ??_R1A@?0A@EA@IAtlStringMgr@ATL@@8 ; ATL::IAtlStringMgr::`RTTI Base Class Array'
	ORG $+3
rdata$r	ENDS
;	COMDAT ??_R3IAtlStringMgr@ATL@@8
rdata$r	SEGMENT
??_R3IAtlStringMgr@ATL@@8 DD 00H			; ATL::IAtlStringMgr::`RTTI Class Hierarchy Descriptor'
	DD	00H
	DD	01H
	DD	imagerel ??_R2IAtlStringMgr@ATL@@8
rdata$r	ENDS
;	COMDAT ??_R0?AUIAtlStringMgr@ATL@@@8
data$r	SEGMENT
??_R0?AUIAtlStringMgr@ATL@@@8 DQ FLAT:??_7type_info@@6B@ ; ATL::IAtlStringMgr `RTTI Type Descriptor'
	DQ	0000000000000000H
	DB	'.?AUIAtlStringMgr@ATL@@', 00H
data$r	ENDS
;	COMDAT ??_R1A@?0A@EA@IAtlStringMgr@ATL@@8
rdata$r	SEGMENT
??_R1A@?0A@EA@IAtlStringMgr@ATL@@8 DD imagerel ??_R0?AUIAtlStringMgr@ATL@@@8 ; ATL::IAtlStringMgr::`RTTI Base Class Descriptor at (0,-1,0,64)'
	DD	00H
	DD	00H
	DD	0ffffffffH
	DD	00H
	DD	040H
	DD	imagerel ??_R3IAtlStringMgr@ATL@@8
rdata$r	ENDS
;	COMDAT ??_R2IAtlMemMgr@ATL@@8
rdata$r	SEGMENT
??_R2IAtlMemMgr@ATL@@8 DD imagerel ??_R1A@?0A@EA@IAtlMemMgr@ATL@@8 ; ATL::IAtlMemMgr::`RTTI Base Class Array'
	ORG $+3
rdata$r	ENDS
;	COMDAT ??_R3IAtlMemMgr@ATL@@8
rdata$r	SEGMENT
??_R3IAtlMemMgr@ATL@@8 DD 00H				; ATL::IAtlMemMgr::`RTTI Class Hierarchy Descriptor'
	DD	00H
	DD	01H
	DD	imagerel ??_R2IAtlMemMgr@ATL@@8
rdata$r	ENDS
;	COMDAT ??_R0?AUIAtlMemMgr@ATL@@@8
data$r	SEGMENT
??_R0?AUIAtlMemMgr@ATL@@@8 DQ FLAT:??_7type_info@@6B@	; ATL::IAtlMemMgr `RTTI Type Descriptor'
	DQ	0000000000000000H
	DB	'.?AUIAtlMemMgr@ATL@@', 00H
data$r	ENDS
;	COMDAT ??_R1A@?0A@EA@IAtlMemMgr@ATL@@8
rdata$r	SEGMENT
??_R1A@?0A@EA@IAtlMemMgr@ATL@@8 DD imagerel ??_R0?AUIAtlMemMgr@ATL@@@8 ; ATL::IAtlMemMgr::`RTTI Base Class Descriptor at (0,-1,0,64)'
	DD	00H
	DD	00H
	DD	0ffffffffH
	DD	00H
	DD	040H
	DD	imagerel ??_R3IAtlMemMgr@ATL@@8
rdata$r	ENDS
;	COMDAT ??_R1A@?0A@EA@CWin32Heap@ATL@@8
rdata$r	SEGMENT
??_R1A@?0A@EA@CWin32Heap@ATL@@8 DD imagerel ??_R0?AVCWin32Heap@ATL@@@8 ; ATL::CWin32Heap::`RTTI Base Class Descriptor at (0,-1,0,64)'
	DD	01H
	DD	00H
	DD	0ffffffffH
	DD	00H
	DD	040H
	DD	imagerel ??_R3CWin32Heap@ATL@@8
rdata$r	ENDS
;	COMDAT ??_R2CWin32Heap@ATL@@8
rdata$r	SEGMENT
??_R2CWin32Heap@ATL@@8 DD imagerel ??_R1A@?0A@EA@CWin32Heap@ATL@@8 ; ATL::CWin32Heap::`RTTI Base Class Array'
	DD	imagerel ??_R1A@?0A@EA@IAtlMemMgr@ATL@@8
	ORG $+3
rdata$r	ENDS
;	COMDAT ??_R3CWin32Heap@ATL@@8
rdata$r	SEGMENT
??_R3CWin32Heap@ATL@@8 DD 00H				; ATL::CWin32Heap::`RTTI Class Hierarchy Descriptor'
	DD	00H
	DD	02H
	DD	imagerel ??_R2CWin32Heap@ATL@@8
rdata$r	ENDS
;	COMDAT ??_R0?AVCWin32Heap@ATL@@@8
data$r	SEGMENT
??_R0?AVCWin32Heap@ATL@@@8 DQ FLAT:??_7type_info@@6B@	; ATL::CWin32Heap `RTTI Type Descriptor'
	DQ	0000000000000000H
	DB	'.?AVCWin32Heap@ATL@@', 00H
data$r	ENDS
;	COMDAT ??_R4CWin32Heap@ATL@@6B@
rdata$r	SEGMENT
??_R4CWin32Heap@ATL@@6B@ DD 01H				; ATL::CWin32Heap::`RTTI Complete Object Locator'
	DD	00H
	DD	00H
	DD	imagerel ??_R0?AVCWin32Heap@ATL@@@8
	DD	imagerel ??_R3CWin32Heap@ATL@@8
	DD	imagerel ??_R4CWin32Heap@ATL@@6B@
rdata$r	ENDS
;	COMDAT ??_C@_1BK@NHECDDNK@?$AAm?$AA_?$AAp?$AAD?$AAa?$AAt?$AAa?$AA?5?$AA?$DN?$AA?$DN?$AA?5?$AA0?$AA?$AA@
CONST	SEGMENT
??_C@_1BK@NHECDDNK@?$AAm?$AA_?$AAp?$AAD?$AAa?$AAt?$AAa?$AA?5?$AA?$DN?$AA?$DN?$AA?5?$AA0?$AA?$AA@ DB 'm'
	DB	00H, '_', 00H, 'p', 00H, 'D', 00H, 'a', 00H, 't', 00H, 'a', 00H
	DB	' ', 00H, '=', 00H, '=', 00H, ' ', 00H, '0', 00H, 00H, 00H ; `string'
CONST	ENDS
;	COMDAT ??_C@_1GC@MMHKDKGK@?$AAD?$AA?3?$AA?2?$AAV?$AAi?$AAs?$AAu?$AAa?$AAl?$AA?5?$AAS?$AAt?$AAu?$AAd?$AAi?$AAo?$AA?2?$AAV?$AAC?$AA?2?$AAa?$AAt?$AAl?$AAm?$AAf?$AAc?$AA?2?$AAi?$AAn?$AAc?$AAl?$AAu@
CONST	SEGMENT
??_C@_1GC@MMHKDKGK@?$AAD?$AA?3?$AA?2?$AAV?$AAi?$AAs?$AAu?$AAa?$AAl?$AA?5?$AAS?$AAt?$AAu?$AAd?$AAi?$AAo?$AA?2?$AAV?$AAC?$AA?2?$AAa?$AAt?$AAl?$AAm?$AAf?$AAc?$AA?2?$AAi?$AAn?$AAc?$AAl?$AAu@ DB 'D'
	DB	00H, ':', 00H, '\', 00H, 'V', 00H, 'i', 00H, 's', 00H, 'u', 00H
	DB	'a', 00H, 'l', 00H, ' ', 00H, 'S', 00H, 't', 00H, 'u', 00H, 'd'
	DB	00H, 'i', 00H, 'o', 00H, '\', 00H, 'V', 00H, 'C', 00H, '\', 00H
	DB	'a', 00H, 't', 00H, 'l', 00H, 'm', 00H, 'f', 00H, 'c', 00H, '\'
	DB	00H, 'i', 00H, 'n', 00H, 'c', 00H, 'l', 00H, 'u', 00H, 'd', 00H
	DB	'e', 00H, '\', 00H, 'a', 00H, 't', 00H, 'l', 00H, 's', 00H, 'i'
	DB	00H, 'm', 00H, 'p', 00H, 'c', 00H, 'o', 00H, 'l', 00H, 'l', 00H
	DB	'.', 00H, 'h', 00H, 00H, 00H			; `string'
CONST	ENDS
;	COMDAT ??_C@_1EA@JHMKKLFC@?$AAn?$AAI?$AAn?$AAd?$AAe?$AAx?$AA?5?$AA?$DO?$AA?$DN?$AA?5?$AA0?$AA?5?$AA?$CG?$AA?$CG?$AA?5?$AAn?$AAI?$AAn?$AAd?$AAe?$AAx?$AA?5?$AA?$DM?$AA?5?$AAm?$AA_?$AAn?$AAS?$AAi?$AAz?$AAe?$AA?$AA@
CONST	SEGMENT
??_C@_1EA@JHMKKLFC@?$AAn?$AAI?$AAn?$AAd?$AAe?$AAx?$AA?5?$AA?$DO?$AA?$DN?$AA?5?$AA0?$AA?5?$AA?$CG?$AA?$CG?$AA?5?$AAn?$AAI?$AAn?$AAd?$AAe?$AAx?$AA?5?$AA?$DM?$AA?5?$AAm?$AA_?$AAn?$AAS?$AAi?$AAz?$AAe?$AA?$AA@ DB 'n'
	DB	00H, 'I', 00H, 'n', 00H, 'd', 00H, 'e', 00H, 'x', 00H, ' ', 00H
	DB	'>', 00H, '=', 00H, ' ', 00H, '0', 00H, ' ', 00H, '&', 00H, '&'
	DB	00H, ' ', 00H, 'n', 00H, 'I', 00H, 'n', 00H, 'd', 00H, 'e', 00H
	DB	'x', 00H, ' ', 00H, '<', 00H, ' ', 00H, 'm', 00H, '_', 00H, 'n'
	DB	00H, 'S', 00H, 'i', 00H, 'z', 00H, 'e', 00H, 00H, 00H ; `string'
CONST	ENDS
;	COMDAT ??_C@_1DE@KEEBDKDC@?$AAp?$AAD?$AAa?$AAt?$AAa?$AA?9?$AA?$DO?$AAp?$AAS?$AAt?$AAr?$AAi?$AAn?$AAg?$AAM?$AAg?$AAr?$AA?5?$AA?$DN?$AA?$DN?$AA?5?$AAt?$AAh?$AAi?$AAs?$AA?$AA@
CONST	SEGMENT
??_C@_1DE@KEEBDKDC@?$AAp?$AAD?$AAa?$AAt?$AAa?$AA?9?$AA?$DO?$AAp?$AAS?$AAt?$AAr?$AAi?$AAn?$AAg?$AAM?$AAg?$AAr?$AA?5?$AA?$DN?$AA?$DN?$AA?5?$AAt?$AAh?$AAi?$AAs?$AA?$AA@ DB 'p'
	DB	00H, 'D', 00H, 'a', 00H, 't', 00H, 'a', 00H, '-', 00H, '>', 00H
	DB	'p', 00H, 'S', 00H, 't', 00H, 'r', 00H, 'i', 00H, 'n', 00H, 'g'
	DB	00H, 'M', 00H, 'g', 00H, 'r', 00H, ' ', 00H, '=', 00H, '=', 00H
	DB	' ', 00H, 't', 00H, 'h', 00H, 'i', 00H, 's', 00H, 00H, 00H ; `string'
CONST	ENDS
;	COMDAT ??_C@_1BG@IEBIBJEI@?$AAp?$AAD?$AAa?$AAt?$AAa?$AA?5?$AA?$CB?$AA?$DN?$AA?5?$AA0?$AA?$AA@
CONST	SEGMENT
??_C@_1BG@IEBIBJEI@?$AAp?$AAD?$AAa?$AAt?$AAa?$AA?5?$AA?$CB?$AA?$DN?$AA?5?$AA0?$AA?$AA@ DB 'p'
	DB	00H, 'D', 00H, 'a', 00H, 't', 00H, 'a', 00H, ' ', 00H, '!', 00H
	DB	'=', 00H, ' ', 00H, '0', 00H, 00H, 00H	; `string'
CONST	ENDS
;	COMDAT ??_C@_1FI@MIPKFKKB@?$AAD?$AA?3?$AA?2?$AAV?$AAi?$AAs?$AAu?$AAa?$AAl?$AA?5?$AAS?$AAt?$AAu?$AAd?$AAi?$AAo?$AA?2?$AAV?$AAC?$AA?2?$AAa?$AAt?$AAl?$AAm?$AAf?$AAc?$AA?2?$AAi?$AAn?$AAc?$AAl?$AAu@
CONST	SEGMENT
??_C@_1FI@MIPKFKKB@?$AAD?$AA?3?$AA?2?$AAV?$AAi?$AAs?$AAu?$AAa?$AAl?$AA?5?$AAS?$AAt?$AAu?$AAd?$AAi?$AAo?$AA?2?$AAV?$AAC?$AA?2?$AAa?$AAt?$AAl?$AAm?$AAf?$AAc?$AA?2?$AAi?$AAn?$AAc?$AAl?$AAu@ DB 'D'
	DB	00H, ':', 00H, '\', 00H, 'V', 00H, 'i', 00H, 's', 00H, 'u', 00H
	DB	'a', 00H, 'l', 00H, ' ', 00H, 'S', 00H, 't', 00H, 'u', 00H, 'd'
	DB	00H, 'i', 00H, 'o', 00H, '\', 00H, 'V', 00H, 'C', 00H, '\', 00H
	DB	'a', 00H, 't', 00H, 'l', 00H, 'm', 00H, 'f', 00H, 'c', 00H, '\'
	DB	00H, 'i', 00H, 'n', 00H, 'c', 00H, 'l', 00H, 'u', 00H, 'd', 00H
	DB	'e', 00H, '\', 00H, 'a', 00H, 't', 00H, 'l', 00H, 's', 00H, 't'
	DB	00H, 'r', 00H, '.', 00H, 'h', 00H, 00H, 00H	; `string'
CONST	ENDS
;	COMDAT ??_7CAtlStringMgr@ATL@@6B@
CONST	SEGMENT
??_7CAtlStringMgr@ATL@@6B@ DQ FLAT:??_R4CAtlStringMgr@ATL@@6B@ ; ATL::CAtlStringMgr::`vftable'
	DQ	FLAT:?Allocate@CAtlStringMgr@ATL@@UEAAPEAUCStringData@2@HH@Z
	DQ	FLAT:?Free@CAtlStringMgr@ATL@@UEAAXPEAUCStringData@2@@Z
	DQ	FLAT:?Reallocate@CAtlStringMgr@ATL@@UEAAPEAUCStringData@2@PEAU32@HH@Z
	DQ	FLAT:?GetNilString@CAtlStringMgr@ATL@@UEAAPEAUCStringData@2@XZ
	DQ	FLAT:?Clone@CAtlStringMgr@ATL@@UEAAPEAUIAtlStringMgr@2@XZ
	DQ	FLAT:??_ECAtlStringMgr@ATL@@UEAAPEAXI@Z
CONST	ENDS
;	COMDAT ??_C@_1CA@MEFFJNJ@?$AAp?$AAS?$AAt?$AAr?$AAi?$AAn?$AAg?$AAM?$AAg?$AAr?$AA?5?$AA?$DN?$AA?$DN?$AA?5?$AA0?$AA?$AA@
CONST	SEGMENT
??_C@_1CA@MEFFJNJ@?$AAp?$AAS?$AAt?$AAr?$AAi?$AAn?$AAg?$AAM?$AAg?$AAr?$AA?5?$AA?$DN?$AA?$DN?$AA?5?$AA0?$AA?$AA@ DB 'p'
	DB	00H, 'S', 00H, 't', 00H, 'r', 00H, 'i', 00H, 'n', 00H, 'g', 00H
	DB	'M', 00H, 'g', 00H, 'r', 00H, ' ', 00H, '=', 00H, '=', 00H, ' '
	DB	00H, '0', 00H, 00H, 00H			; `string'
CONST	ENDS
;	COMDAT ??_C@_1GA@HKBCNNJD@?$AAD?$AA?3?$AA?2?$AAV?$AAi?$AAs?$AAu?$AAa?$AAl?$AA?5?$AAS?$AAt?$AAu?$AAd?$AAi?$AAo?$AA?2?$AAV?$AAC?$AA?2?$AAa?$AAt?$AAl?$AAm?$AAf?$AAc?$AA?2?$AAi?$AAn?$AAc?$AAl?$AAu@
CONST	SEGMENT
??_C@_1GA@HKBCNNJD@?$AAD?$AA?3?$AA?2?$AAV?$AAi?$AAs?$AAu?$AAa?$AAl?$AA?5?$AAS?$AAt?$AAu?$AAd?$AAi?$AAo?$AA?2?$AAV?$AAC?$AA?2?$AAa?$AAt?$AAl?$AAm?$AAf?$AAc?$AA?2?$AAi?$AAn?$AAc?$AAl?$AAu@ DB 'D'
	DB	00H, ':', 00H, '\', 00H, 'V', 00H, 'i', 00H, 's', 00H, 'u', 00H
	DB	'a', 00H, 'l', 00H, ' ', 00H, 'S', 00H, 't', 00H, 'u', 00H, 'd'
	DB	00H, 'i', 00H, 'o', 00H, '\', 00H, 'V', 00H, 'C', 00H, '\', 00H
	DB	'a', 00H, 't', 00H, 'l', 00H, 'm', 00H, 'f', 00H, 'c', 00H, '\'
	DB	00H, 'i', 00H, 'n', 00H, 'c', 00H, 'l', 00H, 'u', 00H, 'd', 00H
	DB	'e', 00H, '\', 00H, 'a', 00H, 't', 00H, 'l', 00H, 's', 00H, 'i'
	DB	00H, 'm', 00H, 'p', 00H, 's', 00H, 't', 00H, 'r', 00H, '.', 00H
	DB	'h', 00H, 00H, 00H				; `string'
CONST	ENDS
;	COMDAT ??_C@_1BE@BLGCOAPB@?$AAn?$AAR?$AAe?$AAf?$AAs?$AA?5?$AA?$DO?$AA?5?$AA0?$AA?$AA@
CONST	SEGMENT
??_C@_1BE@BLGCOAPB@?$AAn?$AAR?$AAe?$AAf?$AAs?$AA?5?$AA?$DO?$AA?5?$AA0?$AA?$AA@ DB 'n'
	DB	00H, 'R', 00H, 'e', 00H, 'f', 00H, 's', 00H, ' ', 00H, '>', 00H
	DB	' ', 00H, '0', 00H, 00H, 00H			; `string'
CONST	ENDS
;	COMDAT ??_C@_1BC@PMINONJG@?$AAb?$AAS?$AAu?$AAc?$AAc?$AAe?$AAs?$AAs?$AA?$AA@
CONST	SEGMENT
??_C@_1BC@PMINONJG@?$AAb?$AAS?$AAu?$AAc?$AAc?$AAe?$AAs?$AAs?$AA?$AA@ DB 'b'
	DB	00H, 'S', 00H, 'u', 00H, 'c', 00H, 'c', 00H, 'e', 00H, 's', 00H
	DB	's', 00H, 00H, 00H				; `string'
CONST	ENDS
;	COMDAT ??_C@_1FI@EACEKNBC@?$AAD?$AA?3?$AA?2?$AAV?$AAi?$AAs?$AAu?$AAa?$AAl?$AA?5?$AAS?$AAt?$AAu?$AAd?$AAi?$AAo?$AA?2?$AAV?$AAC?$AA?2?$AAa?$AAt?$AAl?$AAm?$AAf?$AAc?$AA?2?$AAi?$AAn?$AAc?$AAl?$AAu@
CONST	SEGMENT
??_C@_1FI@EACEKNBC@?$AAD?$AA?3?$AA?2?$AAV?$AAi?$AAs?$AAu?$AAa?$AAl?$AA?5?$AAS?$AAt?$AAu?$AAd?$AAi?$AAo?$AA?2?$AAV?$AAC?$AA?2?$AAa?$AAt?$AAl?$AAm?$AAf?$AAc?$AA?2?$AAi?$AAn?$AAc?$AAl?$AAu@ DB 'D'
	DB	00H, ':', 00H, '\', 00H, 'V', 00H, 'i', 00H, 's', 00H, 'u', 00H
	DB	'a', 00H, 'l', 00H, ' ', 00H, 'S', 00H, 't', 00H, 'u', 00H, 'd'
	DB	00H, 'i', 00H, 'o', 00H, '\', 00H, 'V', 00H, 'C', 00H, '\', 00H
	DB	'a', 00H, 't', 00H, 'l', 00H, 'm', 00H, 'f', 00H, 'c', 00H, '\'
	DB	00H, 'i', 00H, 'n', 00H, 'c', 00H, 'l', 00H, 'u', 00H, 'd', 00H
	DB	'e', 00H, '\', 00H, 'a', 00H, 't', 00H, 'l', 00H, 'm', 00H, 'e'
	DB	00H, 'm', 00H, '.', 00H, 'h', 00H, 00H, 00H	; `string'
CONST	ENDS
;	COMDAT ??_C@_1BG@CLPBKBHG@?$AAh?$AAH?$AAe?$AAa?$AAp?$AA?5?$AA?$CB?$AA?$DN?$AA?5?$AA0?$AA?$AA@
CONST	SEGMENT
??_C@_1BG@CLPBKBHG@?$AAh?$AAH?$AAe?$AAa?$AAp?$AA?5?$AA?$CB?$AA?$DN?$AA?5?$AA0?$AA?$AA@ DB 'h'
	DB	00H, 'H', 00H, 'e', 00H, 'a', 00H, 'p', 00H, ' ', 00H, '!', 00H
	DB	'=', 00H, ' ', 00H, '0', 00H, 00H, 00H	; `string'
CONST	ENDS
;	COMDAT ??_7CWin32Heap@ATL@@6B@
CONST	SEGMENT
??_7CWin32Heap@ATL@@6B@ DQ FLAT:??_R4CWin32Heap@ATL@@6B@ ; ATL::CWin32Heap::`vftable'
	DQ	FLAT:?Allocate@CWin32Heap@ATL@@UEAAPEAX_K@Z
	DQ	FLAT:?Free@CWin32Heap@ATL@@UEAAXPEAX@Z
	DQ	FLAT:?Reallocate@CWin32Heap@ATL@@UEAAPEAXPEAX_K@Z
	DQ	FLAT:?GetSize@CWin32Heap@ATL@@UEAA_KPEAX@Z
	DQ	FLAT:??_ECWin32Heap@ATL@@UEAAPEAXI@Z
CONST	ENDS
;	COMDAT ??_C@_1IG@OPJAFKJH@?$AAE?$AAR?$AAR?$AAO?$AAR?$AA?5?$AA?3?$AA?5?$AAU?$AAn?$AAa?$AAb?$AAl?$AAe?$AA?5?$AAt?$AAo?$AA?5?$AAi?$AAn?$AAi?$AAt?$AAi?$AAa?$AAl?$AAi?$AAz?$AAe?$AA?5?$AAc?$AAr?$AAi@
CONST	SEGMENT
??_C@_1IG@OPJAFKJH@?$AAE?$AAR?$AAR?$AAO?$AAR?$AA?5?$AA?3?$AA?5?$AAU?$AAn?$AAa?$AAb?$AAl?$AAe?$AA?5?$AAt?$AAo?$AA?5?$AAi?$AAn?$AAi?$AAt?$AAi?$AAa?$AAl?$AAi?$AAz?$AAe?$AA?5?$AAc?$AAr?$AAi@ DB 'E'
	DB	00H, 'R', 00H, 'R', 00H, 'O', 00H, 'R', 00H, ' ', 00H, ':', 00H
	DB	' ', 00H, 'U', 00H, 'n', 00H, 'a', 00H, 'b', 00H, 'l', 00H, 'e'
	DB	00H, ' ', 00H, 't', 00H, 'o', 00H, ' ', 00H, 'i', 00H, 'n', 00H
	DB	'i', 00H, 't', 00H, 'i', 00H, 'a', 00H, 'l', 00H, 'i', 00H, 'z'
	DB	00H, 'e', 00H, ' ', 00H, 'c', 00H, 'r', 00H, 'i', 00H, 't', 00H
	DB	'i', 00H, 'c', 00H, 'a', 00H, 'l', 00H, ' ', 00H, 's', 00H, 'e'
	DB	00H, 'c', 00H, 't', 00H, 'i', 00H, 'o', 00H, 'n', 00H, ' ', 00H
	DB	'i', 00H, 'n', 00H, ' ', 00H, 'A', 00H, 't', 00H, 'l', 00H, 'W'
	DB	00H, 'i', 00H, 'n', 00H, 'M', 00H, 'o', 00H, 'd', 00H, 'u', 00H
	DB	'l', 00H, 'e', 00H, 'I', 00H, 'n', 00H, 'i', 00H, 't', 00H, 0aH
	DB	00H, 00H, 00H				; `string'
CONST	ENDS
;	COMDAT ??_C@_1IA@KEEOONGN@?$AAE?$AAR?$AAR?$AAO?$AAR?$AA?5?$AA?3?$AA?5?$AAU?$AAn?$AAa?$AAb?$AAl?$AAe?$AA?5?$AAt?$AAo?$AA?5?$AAi?$AAn?$AAi?$AAt?$AAi?$AAa?$AAl?$AAi?$AAz?$AAe?$AA?5?$AAc?$AAr?$AAi@
CONST	SEGMENT
??_C@_1IA@KEEOONGN@?$AAE?$AAR?$AAR?$AAO?$AAR?$AA?5?$AA?3?$AA?5?$AAU?$AAn?$AAa?$AAb?$AAl?$AAe?$AA?5?$AAt?$AAo?$AA?5?$AAi?$AAn?$AAi?$AAt?$AAi?$AAa?$AAl?$AAi?$AAz?$AAe?$AA?5?$AAc?$AAr?$AAi@ DB 'E'
	DB	00H, 'R', 00H, 'R', 00H, 'O', 00H, 'R', 00H, ' ', 00H, ':', 00H
	DB	' ', 00H, 'U', 00H, 'n', 00H, 'a', 00H, 'b', 00H, 'l', 00H, 'e'
	DB	00H, ' ', 00H, 't', 00H, 'o', 00H, ' ', 00H, 'i', 00H, 'n', 00H
	DB	'i', 00H, 't', 00H, 'i', 00H, 'a', 00H, 'l', 00H, 'i', 00H, 'z'
	DB	00H, 'e', 00H, ' ', 00H, 'c', 00H, 'r', 00H, 'i', 00H, 't', 00H
	DB	'i', 00H, 'c', 00H, 'a', 00H, 'l', 00H, ' ', 00H, 's', 00H, 'e'
	DB	00H, 'c', 00H, 't', 00H, 'i', 00H, 'o', 00H, 'n', 00H, ' ', 00H
	DB	'i', 00H, 'n', 00H, ' ', 00H, 'C', 00H, 'A', 00H, 't', 00H, 'l'
	DB	00H, 'C', 00H, 'o', 00H, 'm', 00H, 'M', 00H, 'o', 00H, 'd', 00H
	DB	'u', 00H, 'l', 00H, 'e', 00H, 0aH, 00H, 00H, 00H ; `string'
CONST	ENDS
;	COMDAT ??_C@_0CN@DJIBLIGL@D?3?2Visual?5Studio?2VC?2atlmfc?2inclu@
CONST	SEGMENT
??_C@_0CN@DJIBLIGL@D?3?2Visual?5Studio?2VC?2atlmfc?2inclu@ DB 'D:\Visual '
	DB	'Studio\VC\atlmfc\include\atlbase.h', 00H	; `string'
CONST	ENDS
;	COMDAT ??_C@_1FK@OPACDJFG@?$AAD?$AA?3?$AA?2?$AAV?$AAi?$AAs?$AAu?$AAa?$AAl?$AA?5?$AAS?$AAt?$AAu?$AAd?$AAi?$AAo?$AA?2?$AAV?$AAC?$AA?2?$AAa?$AAt?$AAl?$AAm?$AAf?$AAc?$AA?2?$AAi?$AAn?$AAc?$AAl?$AAu@
CONST	SEGMENT
??_C@_1FK@OPACDJFG@?$AAD?$AA?3?$AA?2?$AAV?$AAi?$AAs?$AAu?$AAa?$AAl?$AA?5?$AAS?$AAt?$AAu?$AAd?$AAi?$AAo?$AA?2?$AAV?$AAC?$AA?2?$AAa?$AAt?$AAl?$AAm?$AAf?$AAc?$AA?2?$AAi?$AAn?$AAc?$AAl?$AAu@ DB 'D'
	DB	00H, ':', 00H, '\', 00H, 'V', 00H, 'i', 00H, 's', 00H, 'u', 00H
	DB	'a', 00H, 'l', 00H, ' ', 00H, 'S', 00H, 't', 00H, 'u', 00H, 'd'
	DB	00H, 'i', 00H, 'o', 00H, '\', 00H, 'V', 00H, 'C', 00H, '\', 00H
	DB	'a', 00H, 't', 00H, 'l', 00H, 'm', 00H, 'f', 00H, 'c', 00H, '\'
	DB	00H, 'i', 00H, 'n', 00H, 'c', 00H, 'l', 00H, 'u', 00H, 'd', 00H
	DB	'e', 00H, '\', 00H, 'a', 00H, 't', 00H, 'l', 00H, 'b', 00H, 'a'
	DB	00H, 's', 00H, 'e', 00H, '.', 00H, 'h', 00H, 00H, 00H ; `string'
CONST	ENDS
;	COMDAT ??_C@_1BM@GBBOFEAE@?$AA_?$AA_?$AAa?$AAt?$AAl?$AA_?$AAc?$AAo?$AAn?$AAd?$AAV?$AAa?$AAl?$AA?$AA@
CONST	SEGMENT
??_C@_1BM@GBBOFEAE@?$AA_?$AA_?$AAa?$AAt?$AAl?$AA_?$AAc?$AAo?$AAn?$AAd?$AAV?$AAa?$AAl?$AA?$AA@ DB '_'
	DB	00H, '_', 00H, 'a', 00H, 't', 00H, 'l', 00H, '_', 00H, 'c', 00H
	DB	'o', 00H, 'n', 00H, 'd', 00H, 'V', 00H, 'a', 00H, 'l', 00H, 00H
	DB	00H						; `string'
CONST	ENDS
;	COMDAT ??_C@_1FM@KCNIDIBH@?$AAD?$AA?3?$AA?2?$AAV?$AAi?$AAs?$AAu?$AAa?$AAl?$AA?5?$AAS?$AAt?$AAu?$AAd?$AAi?$AAo?$AA?2?$AAV?$AAC?$AA?2?$AAa?$AAt?$AAl?$AAm?$AAf?$AAc?$AA?2?$AAi?$AAn?$AAc?$AAl?$AAu@
CONST	SEGMENT
??_C@_1FM@KCNIDIBH@?$AAD?$AA?3?$AA?2?$AAV?$AAi?$AAs?$AAu?$AAa?$AAl?$AA?5?$AAS?$AAt?$AAu?$AAd?$AAi?$AAo?$AA?2?$AAV?$AAC?$AA?2?$AAa?$AAt?$AAl?$AAm?$AAf?$AAc?$AA?2?$AAi?$AAn?$AAc?$AAl?$AAu@ DB 'D'
	DB	00H, ':', 00H, '\', 00H, 'V', 00H, 'i', 00H, 's', 00H, 'u', 00H
	DB	'a', 00H, 'l', 00H, ' ', 00H, 'S', 00H, 't', 00H, 'u', 00H, 'd'
	DB	00H, 'i', 00H, 'o', 00H, '\', 00H, 'V', 00H, 'C', 00H, '\', 00H
	DB	'a', 00H, 't', 00H, 'l', 00H, 'm', 00H, 'f', 00H, 'c', 00H, '\'
	DB	00H, 'i', 00H, 'n', 00H, 'c', 00H, 'l', 00H, 'u', 00H, 'd', 00H
	DB	'e', 00H, '\', 00H, 'a', 00H, 't', 00H, 'l', 00H, 't', 00H, 'r'
	DB	00H, 'a', 00H, 'c', 00H, 'e', 00H, '.', 00H, 'h', 00H, 00H, 00H ; `string'
CONST	ENDS
;	COMDAT ??_C@_1EO@EBPPKGOM@?$AAf?$AAa?$AAl?$AAs?$AAe?$AA?5?$AA?$CG?$AA?$CG?$AA?5?$AA?$CC?$AAT?$AAo?$AAo?$AA?5?$AAm?$AAa?$AAn?$AAy?$AA?5?$AAc?$AAa?$AAt?$AAe?$AAg?$AAo?$AAr?$AAi?$AAe?$AAs?$AA?5?$AAd?$AAe@
CONST	SEGMENT
??_C@_1EO@EBPPKGOM@?$AAf?$AAa?$AAl?$AAs?$AAe?$AA?5?$AA?$CG?$AA?$CG?$AA?5?$AA?$CC?$AAT?$AAo?$AAo?$AA?5?$AAm?$AAa?$AAn?$AAy?$AA?5?$AAc?$AAa?$AAt?$AAe?$AAg?$AAo?$AAr?$AAi?$AAe?$AAs?$AA?5?$AAd?$AAe@ DB 'f'
	DB	00H, 'a', 00H, 'l', 00H, 's', 00H, 'e', 00H, ' ', 00H, '&', 00H
	DB	'&', 00H, ' ', 00H, '"', 00H, 'T', 00H, 'o', 00H, 'o', 00H, ' '
	DB	00H, 'm', 00H, 'a', 00H, 'n', 00H, 'y', 00H, ' ', 00H, 'c', 00H
	DB	'a', 00H, 't', 00H, 'e', 00H, 'g', 00H, 'o', 00H, 'r', 00H, 'i'
	DB	00H, 'e', 00H, 's', 00H, ' ', 00H, 'd', 00H, 'e', 00H, 'f', 00H
	DB	'i', 00H, 'n', 00H, 'e', 00H, 'd', 00H, '"', 00H, 00H, 00H ; `string'
CONST	ENDS
;	COMDAT ??_C@_17LGGGMOOB@?$AA?$CF?$AAh?$AAs?$AA?$AA@
CONST	SEGMENT
??_C@_17LGGGMOOB@?$AA?$CF?$AAh?$AAs?$AA?$AA@ DB '%', 00H, 'h', 00H, 's', 00H
	DB	00H, 00H					; `string'
CONST	ENDS
;	COMDAT ??_C@_1O@OAIPCDPO@?$AA?$CF?$AAl?$AAs?$AA?$CF?$AAl?$AAs?$AA?$AA@
CONST	SEGMENT
??_C@_1O@OAIPCDPO@?$AA?$CF?$AAl?$AAs?$AA?$CF?$AAl?$AAs?$AA?$AA@ DB '%', 00H
	DB	'l', 00H, 's', 00H, '%', 00H, 'l', 00H, 's', 00H, 00H, 00H ; `string'
CONST	ENDS
;	COMDAT ??_C@_1M@PGKOAACE@?$AA?$CF?$AAu?$AA?5?$AA?9?$AA?5?$AA?$AA@
CONST	SEGMENT
??_C@_1M@PGKOAACE@?$AA?$CF?$AAu?$AA?5?$AA?9?$AA?5?$AA?$AA@ DB '%', 00H, 'u'
	DB	00H, ' ', 00H, '-', 00H, ' ', 00H, 00H, 00H	; `string'
CONST	ENDS
;	COMDAT ??_C@_1O@LFNDFEBP@?$AA?$CF?$AAl?$AAs?$AA?5?$AA?9?$AA?5?$AA?$AA@
CONST	SEGMENT
??_C@_1O@LFNDFEBP@?$AA?$CF?$AAl?$AAs?$AA?5?$AA?9?$AA?5?$AA?$AA@ DB '%', 00H
	DB	'l', 00H, 's', 00H, ' ', 00H, '-', 00H, ' ', 00H, 00H, 00H ; `string'
CONST	ENDS
;	COMDAT ?m_nCategory@CTrace@ATL@@1IA
_DATA	SEGMENT
?m_nCategory@CTrace@ATL@@1IA DD 0ffffffffH		; ATL::CTrace::m_nCategory
_DATA	ENDS
;	COMDAT ??_C@_1FM@NBHDFKJE@?$AAD?$AA?3?$AA?2?$AAV?$AAi?$AAs?$AAu?$AAa?$AAl?$AA?5?$AAS?$AAt?$AAu?$AAd?$AAi?$AAo?$AA?2?$AAV?$AAC?$AA?2?$AAa?$AAt?$AAl?$AAm?$AAf?$AAc?$AA?2?$AAi?$AAn?$AAc?$AAl?$AAu@
CONST	SEGMENT
??_C@_1FM@NBHDFKJE@?$AAD?$AA?3?$AA?2?$AAV?$AAi?$AAs?$AAu?$AAa?$AAl?$AA?5?$AAS?$AAt?$AAu?$AAd?$AAi?$AAo?$AA?2?$AAV?$AAC?$AA?2?$AAa?$AAt?$AAl?$AAm?$AAf?$AAc?$AA?2?$AAi?$AAn?$AAc?$AAl?$AAu@ DB 'D'
	DB	00H, ':', 00H, '\', 00H, 'V', 00H, 'i', 00H, 's', 00H, 'u', 00H
	DB	'a', 00H, 'l', 00H, ' ', 00H, 'S', 00H, 't', 00H, 'u', 00H, 'd'
	DB	00H, 'i', 00H, 'o', 00H, '\', 00H, 'V', 00H, 'C', 00H, '\', 00H
	DB	'a', 00H, 't', 00H, 'l', 00H, 'm', 00H, 'f', 00H, 'c', 00H, '\'
	DB	00H, 'i', 00H, 'n', 00H, 'c', 00H, 'l', 00H, 'u', 00H, 'd', 00H
	DB	'e', 00H, '\', 00H, 'a', 00H, 't', 00H, 'l', 00H, 'a', 00H, 'l'
	DB	00H, 'l', 00H, 'o', 00H, 'c', 00H, '.', 00H, 'h', 00H, 00H, 00H ; `string'
CONST	ENDS
;	COMDAT ??_C@_13COJANIEC@?$AA0?$AA?$AA@
CONST	SEGMENT
??_C@_13COJANIEC@?$AA0?$AA?$AA@ DB '0', 00H, 00H, 00H	; `string'
CONST	ENDS
;	COMDAT ??_C@_17CNPHIMPH@?$AA?$CF?$AAl?$AAs?$AA?$AA@
CONST	SEGMENT
??_C@_17CNPHIMPH@?$AA?$CF?$AAl?$AAs?$AA?$AA@ DB '%', 00H, 'l', 00H, 's', 00H
	DB	00H, 00H					; `string'
CONST	ENDS
xdata	SEGMENT
$unwind$?metaObject@MoldMachine@@UEBAPEBUQMetaObject@@XZ DD 010901H
	DD	06209H
$unwind$?qt_metacast@MoldMachine@@UEAAPEAXPEBD@Z DD 010e01H
	DD	0420eH
$unwind$?qt_metacall@MoldMachine@@UEAAHW4Call@QMetaObject@@HPEAPEAX@Z DD 011701H
	DD	04217H
$unwind$?qt_static_metacall@MoldMachine@@CAXPEAVQObject@@W4Call@QMetaObject@@HPEAPEAX@Z DD 011701H
	DD	0c217H
xdata	ENDS
;	COMDAT xdata
xdata	SEGMENT
$unwind$??__E?isInitialized@CAtlStringMgr@ATL@@0_NA@@YAXXZ DD 010401H
	DD	04204H
xdata	ENDS
;	COMDAT xdata
xdata	SEGMENT
$unwind$??$AtlAdd@K@ATL@@YAJPEAKKK@Z DD 011201H
	DD	04212H
xdata	ENDS
;	COMDAT xdata
xdata	SEGMENT
$unwind$??__FstrMgr@?1??GetInstance@CAtlStringMgr@ATL@@SAPEAUIAtlStringMgr@2@XZ@YAXXZ DD 010401H
	DD	04204H
xdata	ENDS
;	COMDAT xdata
xdata	SEGMENT
$unwind$??__FstrHeap@?1??GetInstance@CAtlStringMgr@ATL@@SAPEAUIAtlStringMgr@2@XZ@YAXXZ DD 010401H
	DD	04204H
xdata	ENDS
;	COMDAT xdata
xdata	SEGMENT
$unwind$??_GCAtlStringMgr@ATL@@UEAAPEAXI@Z DD 010d01H
	DD	0420dH
xdata	ENDS
;	COMDAT xdata
xdata	SEGMENT
$unwind$?StaticInitialize@CAtlStringMgr@ATL@@CA_NXZ DD 010401H
	DD	04204H
xdata	ENDS
;	COMDAT xdata
xdata	SEGMENT
$unwind$?GetNilString@CAtlStringMgr@ATL@@UEAAPEAUCStringData@2@XZ DD 010901H
	DD	04209H
xdata	ENDS
;	COMDAT xdata
xdata	SEGMENT
$unwind$?Reallocate@CAtlStringMgr@ATL@@UEAAPEAUCStringData@2@PEAU32@HH@Z DD 011801H
	DD	0e218H
xdata	ENDS
;	COMDAT xdata
xdata	SEGMENT
$unwind$?Free@CAtlStringMgr@ATL@@UEAAXPEAUCStringData@2@@Z DD 010e01H
	DD	0620eH
xdata	ENDS
;	COMDAT xdata
xdata	SEGMENT
$unwind$?Allocate@CAtlStringMgr@ATL@@UEAAPEAUCStringData@2@HH@Z DD 011201H
	DD	0c212H
xdata	ENDS
;	COMDAT xdata
xdata	SEGMENT
$unwind$?GetInstance@CAtlStringMgr@ATL@@SAPEAUIAtlStringMgr@2@XZ DD 010401H
	DD	04204H
xdata	ENDS
;	COMDAT xdata
xdata	SEGMENT
$unwind$??0CAtlStringMgr@ATL@@QEAA@PEAUIAtlMemMgr@1@@Z DD 010e01H
	DD	0420eH
xdata	ENDS
;	COMDAT xdata
xdata	SEGMENT
$unwind$?SetManager@CNilStringData@ATL@@QEAAXPEAUIAtlStringMgr@2@@Z DD 010e01H
	DD	0620eH
xdata	ENDS
;	COMDAT xdata
xdata	SEGMENT
$unwind$?AddRef@CStringData@ATL@@QEAAXXZ DD 010901H
	DD	06209H
xdata	ENDS
;	COMDAT xdata
xdata	SEGMENT
$unwind$??$AtlAdd@H@ATL@@YAJPEAHHH@Z DD 011201H
	DD	04212H
xdata	ENDS
;	COMDAT xdata
xdata	SEGMENT
$unwind$??$AtlMultiply@_K@ATL@@YAJPEA_K_K1@Z DD 011301H
	DD	04213H
xdata	ENDS
;	COMDAT xdata
xdata	SEGMENT
$unwind$??_GCWin32Heap@ATL@@UEAAPEAXI@Z DD 010d01H
	DD	0420dH
xdata	ENDS
;	COMDAT xdata
xdata	SEGMENT
$unwind$?GetSize@CWin32Heap@ATL@@UEAA_KPEAX@Z DD 010e01H
	DD	0420eH
xdata	ENDS
;	COMDAT xdata
xdata	SEGMENT
$unwind$?Reallocate@CWin32Heap@ATL@@UEAAPEAXPEAX_K@Z DD 011301H
	DD	04213H
xdata	ENDS
;	COMDAT xdata
xdata	SEGMENT
$unwind$?Free@CWin32Heap@ATL@@UEAAXPEAX@Z DD 010e01H
	DD	0820eH
xdata	ENDS
;	COMDAT xdata
xdata	SEGMENT
$unwind$?Allocate@CWin32Heap@ATL@@UEAAPEAX_K@Z DD 010e01H
	DD	0420eH
xdata	ENDS
;	COMDAT xdata
xdata	SEGMENT
$unwind$??1CWin32Heap@ATL@@UEAA@XZ DD 010901H
	DD	08209H
xdata	ENDS
;	COMDAT xdata
xdata	SEGMENT
$unwind$??0CWin32Heap@ATL@@QEAA@PEAX@Z DD 010e01H
	DD	0620eH
xdata	ENDS
;	COMDAT xdata
xdata	SEGMENT
$unwind$??__F_AtlWinModule@ATL@@YAXXZ DD 010401H
	DD	04204H
xdata	ENDS
;	COMDAT xdata
xdata	SEGMENT
$unwind$??__E_AtlWinModule@ATL@@YAXXZ DD 010401H
	DD	04204H
xdata	ENDS
;	COMDAT xdata
xdata	SEGMENT
$unwind$?Term@CAtlWinModule@ATL@@QEAAXXZ DD 010901H
	DD	04209H
xdata	ENDS
;	COMDAT xdata
xdata	SEGMENT
$ip2state$??1CAtlWinModule@ATL@@QEAA@XZ DD imagerel ??1CAtlWinModule@ATL@@QEAA@XZ
	DD	0ffffffffH
xdata	ENDS
;	COMDAT CONST
CONST	SEGMENT
$cppxdata$??1CAtlWinModule@ATL@@QEAA@XZ DD 019930522H
	DD	00H
	DD	00H
	DD	00H
	DD	00H
	DD	01H
	DD	imagerel $ip2state$??1CAtlWinModule@ATL@@QEAA@XZ
	DD	020H
	DD	00H
	DD	05H
CONST	ENDS
;	COMDAT xdata
xdata	SEGMENT
$unwind$??1CAtlWinModule@ATL@@QEAA@XZ DD 011219H
	DD	06209H
	DD	imagerel __CxxFrameHandler3
	DD	imagerel $cppxdata$??1CAtlWinModule@ATL@@QEAA@XZ
xdata	ENDS
;	COMDAT xdata
xdata	SEGMENT
$unwind$??0CAtlWinModule@ATL@@QEAA@XZ DD 010901H
	DD	08209H
xdata	ENDS
;	COMDAT xdata
xdata	SEGMENT
$unwind$??__F_AtlComModule@ATL@@YAXXZ DD 010401H
	DD	04204H
xdata	ENDS
;	COMDAT xdata
xdata	SEGMENT
$unwind$??__E_AtlComModule@ATL@@YAXXZ DD 010401H
	DD	04204H
xdata	ENDS
;	COMDAT xdata
xdata	SEGMENT
$unwind$?Term@CAtlComModule@ATL@@QEAAXXZ DD 010901H
	DD	08209H
xdata	ENDS
;	COMDAT xdata
xdata	SEGMENT
$ip2state$??1CAtlComModule@ATL@@QEAA@XZ DD imagerel ??1CAtlComModule@ATL@@QEAA@XZ
	DD	0ffffffffH
xdata	ENDS
;	COMDAT CONST
CONST	SEGMENT
$cppxdata$??1CAtlComModule@ATL@@QEAA@XZ DD 019930522H
	DD	00H
	DD	00H
	DD	00H
	DD	00H
	DD	01H
	DD	imagerel $ip2state$??1CAtlComModule@ATL@@QEAA@XZ
	DD	020H
	DD	00H
	DD	05H
CONST	ENDS
;	COMDAT xdata
xdata	SEGMENT
$unwind$??1CAtlComModule@ATL@@QEAA@XZ DD 011219H
	DD	06209H
	DD	imagerel __CxxFrameHandler3
	DD	imagerel $cppxdata$??1CAtlComModule@ATL@@QEAA@XZ
xdata	ENDS
;	COMDAT xdata
xdata	SEGMENT
$unwind$??0CAtlComModule@ATL@@QEAA@XZ DD 010901H
	DD	0a209H
xdata	ENDS
;	COMDAT xdata
xdata	SEGMENT
$unwind$?AtlWinModuleTerm@ATL@@YAJPEAU_ATL_WIN_MODULE70@1@PEAUHINSTANCE__@@@Z DD 010e01H
	DD	0620eH
xdata	ENDS
;	COMDAT xdata
xdata	SEGMENT
$unwind$?AtlWinModuleInit@ATL@@YAJPEAU_ATL_WIN_MODULE70@1@@Z DD 010901H
	DD	0a209H
xdata	ENDS
;	COMDAT xdata
xdata	SEGMENT
$unwind$??1_ATL_WIN_MODULE70@ATL@@QEAA@XZ DD 010901H
	DD	04209H
xdata	ENDS
;	COMDAT xdata
xdata	SEGMENT
$unwind$?dtor$0@?0???0_ATL_WIN_MODULE70@ATL@@QEAA@XZ@4HA DD 020601H
	DD	050023206H
xdata	ENDS
;	COMDAT xdata
xdata	SEGMENT
$ip2state$??0_ATL_WIN_MODULE70@ATL@@QEAA@XZ DD imagerel ??0_ATL_WIN_MODULE70@ATL@@QEAA@XZ
	DD	0ffffffffH
	DD	imagerel ??0_ATL_WIN_MODULE70@ATL@@QEAA@XZ+36
	DD	00H
	DD	imagerel ??0_ATL_WIN_MODULE70@ATL@@QEAA@XZ+54
	DD	0ffffffffH
xdata	ENDS
;	COMDAT xdata
xdata	SEGMENT
$stateUnwindMap$??0_ATL_WIN_MODULE70@ATL@@QEAA@XZ DD 0ffffffffH
	DD	imagerel ?dtor$0@?0???0_ATL_WIN_MODULE70@ATL@@QEAA@XZ@4HA
xdata	ENDS
;	COMDAT CONST
CONST	SEGMENT
$cppxdata$??0_ATL_WIN_MODULE70@ATL@@QEAA@XZ DD 019930522H
	DD	01H
	DD	imagerel $stateUnwindMap$??0_ATL_WIN_MODULE70@ATL@@QEAA@XZ
	DD	00H
	DD	00H
	DD	03H
	DD	imagerel $ip2state$??0_ATL_WIN_MODULE70@ATL@@QEAA@XZ
	DD	020H
	DD	00H
	DD	01H
CONST	ENDS
;	COMDAT xdata
xdata	SEGMENT
$unwind$??0_ATL_WIN_MODULE70@ATL@@QEAA@XZ DD 011211H
	DD	06209H
	DD	imagerel __CxxFrameHandler3
	DD	imagerel $cppxdata$??0_ATL_WIN_MODULE70@ATL@@QEAA@XZ
xdata	ENDS
;	COMDAT xdata
xdata	SEGMENT
$unwind$??A?$CSimpleArray@GV?$CSimpleArrayEqualHelper@G@ATL@@@ATL@@QEAAAEAGH@Z DD 010d01H
	DD	0620dH
xdata	ENDS
;	COMDAT xdata
xdata	SEGMENT
$unwind$?RemoveAll@?$CSimpleArray@GV?$CSimpleArrayEqualHelper@G@ATL@@@ATL@@QEAAXXZ DD 010901H
	DD	06209H
xdata	ENDS
;	COMDAT xdata
xdata	SEGMENT
$ip2state$??1?$CSimpleArray@GV?$CSimpleArrayEqualHelper@G@ATL@@@ATL@@QEAA@XZ DD imagerel ??1?$CSimpleArray@GV?$CSimpleArrayEqualHelper@G@ATL@@@ATL@@QEAA@XZ
	DD	0ffffffffH
xdata	ENDS
;	COMDAT CONST
CONST	SEGMENT
$cppxdata$??1?$CSimpleArray@GV?$CSimpleArrayEqualHelper@G@ATL@@@ATL@@QEAA@XZ DD 019930522H
	DD	00H
	DD	00H
	DD	00H
	DD	00H
	DD	01H
	DD	imagerel $ip2state$??1?$CSimpleArray@GV?$CSimpleArrayEqualHelper@G@ATL@@@ATL@@QEAA@XZ
	DD	020H
	DD	00H
	DD	05H
CONST	ENDS
;	COMDAT xdata
xdata	SEGMENT
$unwind$??1?$CSimpleArray@GV?$CSimpleArrayEqualHelper@G@ATL@@@ATL@@QEAA@XZ DD 011219H
	DD	06209H
	DD	imagerel __CxxFrameHandler3
	DD	imagerel $cppxdata$??1?$CSimpleArray@GV?$CSimpleArrayEqualHelper@G@ATL@@@ATL@@QEAA@XZ
xdata	ENDS
;	COMDAT xdata
xdata	SEGMENT
$unwind$??1_ATL_COM_MODULE70@ATL@@QEAA@XZ DD 010901H
	DD	04209H
xdata	ENDS
;	COMDAT xdata
xdata	SEGMENT
$unwind$??0_ATL_COM_MODULE70@ATL@@QEAA@XZ DD 010901H
	DD	04209H
xdata	ENDS
;	COMDAT xdata
xdata	SEGMENT
$unwind$?Term@CComCriticalSection@ATL@@QEAAJXZ DD 010901H
	DD	04209H
xdata	ENDS
;	COMDAT xdata
xdata	SEGMENT
$unwind$?Init@CComCriticalSection@ATL@@QEAAJXZ DD 010901H
	DD	06209H
xdata	ENDS
;	COMDAT xdata
xdata	SEGMENT
$unwind$??0CComCriticalSection@ATL@@QEAA@XZ DD 010901H
	DD	04209H
xdata	ENDS
;	COMDAT xdata
xdata	SEGMENT
$unwind$?_AtlInitializeCriticalSectionEx@ATL@@YAHPEAU_RTL_CRITICAL_SECTION@@KK@Z DD 011201H
	DD	04212H
xdata	ENDS
;	COMDAT xdata
xdata	SEGMENT
$unwind$?_AtlRaiseException@ATL@@YAXKK@Z DD 010c01H
	DD	0420cH
xdata	ENDS
;	COMDAT xdata
xdata	SEGMENT
$unwind$?dtor$0@?0???RCTraceFileAndLineInfo@ATL@@QEBAXHIPEB_WZZ@4HA DD 020601H
	DD	050023206H
xdata	ENDS
;	COMDAT xdata
xdata	SEGMENT
$ip2state$??RCTraceFileAndLineInfo@ATL@@QEBAXHIPEB_WZZ DD imagerel ??RCTraceFileAndLineInfo@ATL@@QEBAXHIPEB_WZZ
	DD	0ffffffffH
	DD	imagerel ??RCTraceFileAndLineInfo@ATL@@QEBAXHIPEB_WZZ+43
	DD	00H
	DD	imagerel ??RCTraceFileAndLineInfo@ATL@@QEBAXHIPEB_WZZ+121
	DD	0ffffffffH
xdata	ENDS
;	COMDAT xdata
xdata	SEGMENT
$stateUnwindMap$??RCTraceFileAndLineInfo@ATL@@QEBAXHIPEB_WZZ DD 0ffffffffH
	DD	imagerel ?dtor$0@?0???RCTraceFileAndLineInfo@ATL@@QEBAXHIPEB_WZZ@4HA
xdata	ENDS
;	COMDAT CONST
CONST	SEGMENT
$cppxdata$??RCTraceFileAndLineInfo@ATL@@QEBAXHIPEB_WZZ DD 019930522H
	DD	01H
	DD	imagerel $stateUnwindMap$??RCTraceFileAndLineInfo@ATL@@QEBAXHIPEB_WZZ
	DD	00H
	DD	00H
	DD	03H
	DD	imagerel $ip2state$??RCTraceFileAndLineInfo@ATL@@QEBAXHIPEB_WZZ
	DD	040H
	DD	00H
	DD	01H
CONST	ENDS
;	COMDAT xdata
xdata	SEGMENT
$unwind$??RCTraceFileAndLineInfo@ATL@@QEBAXHIPEB_WZZ DD 012011H
	DD	0a217H
	DD	imagerel __CxxFrameHandler3
	DD	imagerel $cppxdata$??RCTraceFileAndLineInfo@ATL@@QEBAXHIPEB_WZZ
xdata	ENDS
;	COMDAT xdata
xdata	SEGMENT
$unwind$??1CPreserveLastError@ATL@@QEAA@XZ DD 010901H
	DD	04209H
xdata	ENDS
;	COMDAT xdata
xdata	SEGMENT
$unwind$??0CPreserveLastError@ATL@@QEAA@XZ DD 010901H
	DD	04209H
xdata	ENDS
;	COMDAT xdata
xdata	SEGMENT
$unwind$??1?$CHeapPtr@_WVCCRTAllocator@ATL@@@ATL@@QEAA@XZ DD 010901H
	DD	04209H
xdata	ENDS
;	COMDAT xdata
xdata	SEGMENT
$unwind$?Allocate@?$CHeapPtr@_WVCCRTAllocator@ATL@@@ATL@@QEAA_N_K@Z DD 010e01H
	DD	0620eH
xdata	ENDS
;	COMDAT xdata
xdata	SEGMENT
$unwind$??0?$CHeapPtr@_WVCCRTAllocator@ATL@@@ATL@@QEAA@XZ DD 010901H
	DD	04209H
xdata	ENDS
;	COMDAT xdata
xdata	SEGMENT
$unwind$?Free@?$CHeapPtrBase@_WVCCRTAllocator@ATL@@@ATL@@QEAAXXZ DD 010901H
	DD	04209H
xdata	ENDS
;	COMDAT xdata
xdata	SEGMENT
$unwind$?AllocateBytes@?$CHeapPtrBase@_WVCCRTAllocator@ATL@@@ATL@@QEAA_N_K@Z DD 010e01H
	DD	0620eH
xdata	ENDS
;	COMDAT xdata
xdata	SEGMENT
$unwind$??1?$CHeapPtrBase@_WVCCRTAllocator@ATL@@@ATL@@QEAA@XZ DD 010901H
	DD	04209H
xdata	ENDS
;	COMDAT xdata
xdata	SEGMENT
$unwind$?RegisterCategory@CTrace@ATL@@SAXPEB_WI@Z DD 010d01H
	DD	0620dH
xdata	ENDS
;	COMDAT xdata
xdata	SEGMENT
$unwind$?dtor$0@?0??TraceV@CTrace@ATL@@SAXPEBDHIIPEB_WPEAD@Z@4HA DD 020601H
	DD	050023206H
xdata	ENDS
;	COMDAT xdata
xdata	SEGMENT
$ip2state$?TraceV@CTrace@ATL@@SAXPEBDHIIPEB_WPEAD@Z DD imagerel ?TraceV@CTrace@ATL@@SAXPEBDHIIPEB_WPEAD@Z
	DD	0ffffffffH
	DD	imagerel ?TraceV@CTrace@ATL@@SAXPEBDHIIPEB_WPEAD@Z+119
	DD	00H
	DD	imagerel ?TraceV@CTrace@ATL@@SAXPEBDHIIPEB_WPEAD@Z+147
	DD	0ffffffffH
	DD	imagerel ?TraceV@CTrace@ATL@@SAXPEBDHIIPEB_WPEAD@Z+162
	DD	00H
	DD	imagerel ?TraceV@CTrace@ATL@@SAXPEBDHIIPEB_WPEAD@Z+317
	DD	0ffffffffH
	DD	imagerel ?TraceV@CTrace@ATL@@SAXPEBDHIIPEB_WPEAD@Z+329
	DD	00H
	DD	imagerel ?TraceV@CTrace@ATL@@SAXPEBDHIIPEB_WPEAD@Z+381
	DD	0ffffffffH
xdata	ENDS
;	COMDAT xdata
xdata	SEGMENT
$stateUnwindMap$?TraceV@CTrace@ATL@@SAXPEBDHIIPEB_WPEAD@Z DD 0ffffffffH
	DD	imagerel ?dtor$0@?0??TraceV@CTrace@ATL@@SAXPEBDHIIPEB_WPEAD@Z@4HA
xdata	ENDS
;	COMDAT CONST
CONST	SEGMENT
$cppxdata$?TraceV@CTrace@ATL@@SAXPEBDHIIPEB_WPEAD@Z DD 019930522H
	DD	01H
	DD	imagerel $stateUnwindMap$?TraceV@CTrace@ATL@@SAXPEBDHIIPEB_WPEAD@Z
	DD	00H
	DD	00H
	DD	07H
	DD	imagerel $ip2state$?TraceV@CTrace@ATL@@SAXPEBDHIIPEB_WPEAD@Z
	DD	068H
	DD	00H
	DD	01H
CONST	ENDS
;	COMDAT xdata
xdata	SEGMENT
$unwind$?TraceV@CTrace@ATL@@SAXPEBDHIIPEB_WPEAD@Z DD 012011H
	DD	0e217H
	DD	imagerel __CxxFrameHandler3
	DD	imagerel $cppxdata$?TraceV@CTrace@ATL@@SAXPEBDHIIPEB_WPEAD@Z
xdata	ENDS
;	COMDAT xdata
xdata	SEGMENT
$unwind$?TraceV@CTrace@ATL@@CAXPEBDHIIPEB_W@Z DD 032d19H
	DD	0150011bH
	DD	07014H
	DD	imagerel __GSHandlerCheck
	DD	0a70H
xdata	ENDS
;	COMDAT xdata
xdata	SEGMENT
$unwind$?GetCategoryName@CTrace@ATL@@CAPEA_WI@Z DD 010801H
	DD	02208H
xdata	ENDS
;	COMDAT xdata
xdata	SEGMENT
$unwind$??__EatlTraceISAPI@ATL@@YAXXZ DD 010401H
	DD	04204H
xdata	ENDS
;	COMDAT xdata
xdata	SEGMENT
$unwind$??0?$CTraceCategoryEx@$0EAAAAA@$0A@@ATL@@QEAA@PEB_W@Z DD 010e01H
	DD	0420eH
xdata	ENDS
;	COMDAT xdata
xdata	SEGMENT
$unwind$??__EatlTraceSync@ATL@@YAXXZ DD 010401H
	DD	04204H
xdata	ENDS
;	COMDAT xdata
xdata	SEGMENT
$unwind$??0?$CTraceCategoryEx@$0CAAAAA@$0A@@ATL@@QEAA@PEB_W@Z DD 010e01H
	DD	0420eH
xdata	ENDS
;	COMDAT xdata
xdata	SEGMENT
$unwind$??__EatlTraceSecurity@ATL@@YAXXZ DD 010401H
	DD	04204H
xdata	ENDS
;	COMDAT xdata
xdata	SEGMENT
$unwind$??0?$CTraceCategoryEx@$0BAAAAA@$0A@@ATL@@QEAA@PEB_W@Z DD 010e01H
	DD	0420eH
xdata	ENDS
;	COMDAT xdata
xdata	SEGMENT
$unwind$??__EatlTraceUtil@ATL@@YAXXZ DD 010401H
	DD	04204H
xdata	ENDS
;	COMDAT xdata
xdata	SEGMENT
$unwind$??__EatlTraceMap@ATL@@YAXXZ DD 010401H
	DD	04204H
xdata	ENDS
;	COMDAT xdata
xdata	SEGMENT
$unwind$??0?$CTraceCategoryEx@$0EAAAA@$0A@@ATL@@QEAA@PEB_W@Z DD 010e01H
	DD	0420eH
xdata	ENDS
;	COMDAT xdata
xdata	SEGMENT
$unwind$??__EatlTraceString@ATL@@YAXXZ DD 010401H
	DD	04204H
xdata	ENDS
;	COMDAT xdata
xdata	SEGMENT
$unwind$??0?$CTraceCategoryEx@$0CAAAA@$0A@@ATL@@QEAA@PEB_W@Z DD 010e01H
	DD	0420eH
xdata	ENDS
;	COMDAT xdata
xdata	SEGMENT
$unwind$??__EatlTraceStencil@ATL@@YAXXZ DD 010401H
	DD	04204H
xdata	ENDS
;	COMDAT xdata
xdata	SEGMENT
$unwind$??0?$CTraceCategoryEx@$0BAAAA@$0A@@ATL@@QEAA@PEB_W@Z DD 010e01H
	DD	0420eH
xdata	ENDS
;	COMDAT xdata
xdata	SEGMENT
$unwind$??__EatlTraceCache@ATL@@YAXXZ DD 010401H
	DD	04204H
xdata	ENDS
;	COMDAT xdata
xdata	SEGMENT
$unwind$??0?$CTraceCategoryEx@$0IAAA@$0A@@ATL@@QEAA@PEB_W@Z DD 010e01H
	DD	0420eH
xdata	ENDS
;	COMDAT xdata
xdata	SEGMENT
$unwind$??__EatlTraceTime@ATL@@YAXXZ DD 010401H
	DD	04204H
xdata	ENDS
;	COMDAT xdata
xdata	SEGMENT
$unwind$??0?$CTraceCategoryEx@$0EAAA@$0A@@ATL@@QEAA@PEB_W@Z DD 010e01H
	DD	0420eH
xdata	ENDS
;	COMDAT xdata
xdata	SEGMENT
$unwind$??__EatlTraceException@ATL@@YAXXZ DD 010401H
	DD	04204H
xdata	ENDS
;	COMDAT xdata
xdata	SEGMENT
$unwind$??0?$CTraceCategoryEx@$0CAAA@$0A@@ATL@@QEAA@PEB_W@Z DD 010e01H
	DD	0420eH
xdata	ENDS
;	COMDAT xdata
xdata	SEGMENT
$unwind$??__EatlTraceAllocation@ATL@@YAXXZ DD 010401H
	DD	04204H
xdata	ENDS
;	COMDAT xdata
xdata	SEGMENT
$unwind$??0?$CTraceCategoryEx@$0BAAA@$0A@@ATL@@QEAA@PEB_W@Z DD 010e01H
	DD	0420eH
xdata	ENDS
;	COMDAT xdata
xdata	SEGMENT
$unwind$??__EatlTraceNotImpl@ATL@@YAXXZ DD 010401H
	DD	04204H
xdata	ENDS
;	COMDAT xdata
xdata	SEGMENT
$unwind$??0?$CTraceCategoryEx@$0IAA@$0A@@ATL@@QEAA@PEB_W@Z DD 010e01H
	DD	0420eH
xdata	ENDS
;	COMDAT xdata
xdata	SEGMENT
$unwind$??__EatlTraceSnapin@ATL@@YAXXZ DD 010401H
	DD	04204H
xdata	ENDS
;	COMDAT xdata
xdata	SEGMENT
$unwind$??0?$CTraceCategoryEx@$0EAA@$0A@@ATL@@QEAA@PEB_W@Z DD 010e01H
	DD	0420eH
xdata	ENDS
;	COMDAT xdata
xdata	SEGMENT
$unwind$??__EatlTraceDBProvider@ATL@@YAXXZ DD 010401H
	DD	04204H
xdata	ENDS
;	COMDAT xdata
xdata	SEGMENT
$unwind$??0?$CTraceCategoryEx@$0CAA@$0A@@ATL@@QEAA@PEB_W@Z DD 010e01H
	DD	0420eH
xdata	ENDS
;	COMDAT xdata
xdata	SEGMENT
$unwind$??__EatlTraceDBClient@ATL@@YAXXZ DD 010401H
	DD	04204H
xdata	ENDS
;	COMDAT xdata
xdata	SEGMENT
$unwind$??0?$CTraceCategoryEx@$0BAA@$0A@@ATL@@QEAA@PEB_W@Z DD 010e01H
	DD	0420eH
xdata	ENDS
;	COMDAT xdata
xdata	SEGMENT
$unwind$??__EatlTraceHosting@ATL@@YAXXZ DD 010401H
	DD	04204H
xdata	ENDS
;	COMDAT xdata
xdata	SEGMENT
$unwind$??0?$CTraceCategoryEx@$0IA@$0A@@ATL@@QEAA@PEB_W@Z DD 010e01H
	DD	0420eH
xdata	ENDS
;	COMDAT xdata
xdata	SEGMENT
$unwind$??__EatlTraceControls@ATL@@YAXXZ DD 010401H
	DD	04204H
xdata	ENDS
;	COMDAT xdata
xdata	SEGMENT
$unwind$??0?$CTraceCategoryEx@$0EA@$0A@@ATL@@QEAA@PEB_W@Z DD 010e01H
	DD	0420eH
xdata	ENDS
;	COMDAT xdata
xdata	SEGMENT
$unwind$??__EatlTraceWindowing@ATL@@YAXXZ DD 010401H
	DD	04204H
xdata	ENDS
;	COMDAT xdata
xdata	SEGMENT
$unwind$??0?$CTraceCategoryEx@$0CA@$0A@@ATL@@QEAA@PEB_W@Z DD 010e01H
	DD	0420eH
xdata	ENDS
;	COMDAT xdata
xdata	SEGMENT
$unwind$??__EatlTraceRefcount@ATL@@YAXXZ DD 010401H
	DD	04204H
xdata	ENDS
;	COMDAT xdata
xdata	SEGMENT
$unwind$??0?$CTraceCategoryEx@$0BA@$0A@@ATL@@QEAA@PEB_W@Z DD 010e01H
	DD	0420eH
xdata	ENDS
;	COMDAT xdata
xdata	SEGMENT
$unwind$??__EatlTraceRegistrar@ATL@@YAXXZ DD 010401H
	DD	04204H
xdata	ENDS
;	COMDAT xdata
xdata	SEGMENT
$unwind$??0?$CTraceCategoryEx@$07$0A@@ATL@@QEAA@PEB_W@Z DD 010e01H
	DD	0420eH
xdata	ENDS
;	COMDAT xdata
xdata	SEGMENT
$unwind$??__EatlTraceQI@ATL@@YAXXZ DD 010401H
	DD	04204H
xdata	ENDS
;	COMDAT xdata
xdata	SEGMENT
$unwind$??0?$CTraceCategoryEx@$03$0A@@ATL@@QEAA@PEB_W@Z DD 010e01H
	DD	0420eH
xdata	ENDS
;	COMDAT xdata
xdata	SEGMENT
$unwind$??__EatlTraceCOM@ATL@@YAXXZ DD 010401H
	DD	04204H
xdata	ENDS
;	COMDAT xdata
xdata	SEGMENT
$unwind$??0?$CTraceCategoryEx@$01$0A@@ATL@@QEAA@PEB_W@Z DD 010e01H
	DD	0420eH
xdata	ENDS
;	COMDAT xdata
xdata	SEGMENT
$unwind$??__EatlTraceGeneral@ATL@@YAXXZ DD 010401H
	DD	04204H
xdata	ENDS
;	COMDAT xdata
xdata	SEGMENT
$unwind$??0?$CTraceCategoryEx@$00$0A@@ATL@@QEAA@PEB_W@Z DD 010e01H
	DD	0420eH
xdata	ENDS
;	COMDAT xdata
xdata	SEGMENT
$unwind$??0?$CTraceCategoryEx@$0IAAAA@$0A@@ATL@@QEAA@PEB_W@Z DD 010e01H
	DD	0420eH
xdata	ENDS
;	COMDAT xdata
xdata	SEGMENT
$unwind$??$AtlAdd@_K@ATL@@YAJPEA_K_K1@Z DD 011301H
	DD	04213H
xdata	ENDS
;	COMDAT xdata
xdata	SEGMENT
$unwind$?Free@CCRTAllocator@ATL@@SAXPEAX@Z DD 010901H
	DD	04209H
xdata	ENDS
;	COMDAT xdata
xdata	SEGMENT
$unwind$?Allocate@CCRTAllocator@ATL@@SAPEAX_K@Z DD 010901H
	DD	04209H
xdata	ENDS
;	COMDAT xdata
xdata	SEGMENT
$unwind$??$AtlMultiply@K@ATL@@YAJPEAKKK@Z DD 011201H
	DD	06212H
xdata	ENDS
;	COMDAT xdata
xdata	SEGMENT
$unwind$HRESULT_FROM_WIN32 DD 010801H
	DD	02208H
xdata	ENDS
;	COMDAT xdata
xdata	SEGMENT
$unwind$swprintf_s DD 011801H
	DD	08218H
xdata	ENDS
;	COMDAT xdata
xdata	SEGMENT
$unwind$_vswprintf_s_l DD 011801H
	DD	08218H
xdata	ENDS
;	COMDAT CRT$XCU
CRT$XCU	SEGMENT
?atlTraceCOM$initializer$@ATL@@3P6AXXZEA DQ FLAT:??__EatlTraceCOM@ATL@@YAXXZ ; ATL::atlTraceCOM$initializer$
CRT$XCU	ENDS
;	COMDAT CRT$XCU
CRT$XCU	SEGMENT
?atlTraceQI$initializer$@ATL@@3P6AXXZEA DQ FLAT:??__EatlTraceQI@ATL@@YAXXZ ; ATL::atlTraceQI$initializer$
CRT$XCU	ENDS
;	COMDAT CRT$XCU
CRT$XCU	SEGMENT
?atlTraceRegistrar$initializer$@ATL@@3P6AXXZEA DQ FLAT:??__EatlTraceRegistrar@ATL@@YAXXZ ; ATL::atlTraceRegistrar$initializer$
CRT$XCU	ENDS
;	COMDAT CRT$XCU
CRT$XCU	SEGMENT
?atlTraceRefcount$initializer$@ATL@@3P6AXXZEA DQ FLAT:??__EatlTraceRefcount@ATL@@YAXXZ ; ATL::atlTraceRefcount$initializer$
CRT$XCU	ENDS
;	COMDAT CRT$XCU
CRT$XCU	SEGMENT
?atlTraceWindowing$initializer$@ATL@@3P6AXXZEA DQ FLAT:??__EatlTraceWindowing@ATL@@YAXXZ ; ATL::atlTraceWindowing$initializer$
CRT$XCU	ENDS
;	COMDAT CRT$XCU
CRT$XCU	SEGMENT
?atlTraceControls$initializer$@ATL@@3P6AXXZEA DQ FLAT:??__EatlTraceControls@ATL@@YAXXZ ; ATL::atlTraceControls$initializer$
CRT$XCU	ENDS
;	COMDAT CRT$XCU
CRT$XCU	SEGMENT
?atlTraceHosting$initializer$@ATL@@3P6AXXZEA DQ FLAT:??__EatlTraceHosting@ATL@@YAXXZ ; ATL::atlTraceHosting$initializer$
CRT$XCU	ENDS
;	COMDAT CRT$XCU
CRT$XCU	SEGMENT
?atlTraceDBClient$initializer$@ATL@@3P6AXXZEA DQ FLAT:??__EatlTraceDBClient@ATL@@YAXXZ ; ATL::atlTraceDBClient$initializer$
CRT$XCU	ENDS
;	COMDAT CRT$XCU
CRT$XCU	SEGMENT
?atlTraceDBProvider$initializer$@ATL@@3P6AXXZEA DQ FLAT:??__EatlTraceDBProvider@ATL@@YAXXZ ; ATL::atlTraceDBProvider$initializer$
CRT$XCU	ENDS
;	COMDAT CRT$XCU
CRT$XCU	SEGMENT
?atlTraceSnapin$initializer$@ATL@@3P6AXXZEA DQ FLAT:??__EatlTraceSnapin@ATL@@YAXXZ ; ATL::atlTraceSnapin$initializer$
CRT$XCU	ENDS
;	COMDAT CRT$XCU
CRT$XCU	SEGMENT
?atlTraceNotImpl$initializer$@ATL@@3P6AXXZEA DQ FLAT:??__EatlTraceNotImpl@ATL@@YAXXZ ; ATL::atlTraceNotImpl$initializer$
CRT$XCU	ENDS
;	COMDAT CRT$XCU
CRT$XCU	SEGMENT
?atlTraceAllocation$initializer$@ATL@@3P6AXXZEA DQ FLAT:??__EatlTraceAllocation@ATL@@YAXXZ ; ATL::atlTraceAllocation$initializer$
CRT$XCU	ENDS
;	COMDAT CRT$XCU
CRT$XCU	SEGMENT
?atlTraceException$initializer$@ATL@@3P6AXXZEA DQ FLAT:??__EatlTraceException@ATL@@YAXXZ ; ATL::atlTraceException$initializer$
CRT$XCU	ENDS
;	COMDAT CRT$XCU
CRT$XCU	SEGMENT
?atlTraceTime$initializer$@ATL@@3P6AXXZEA DQ FLAT:??__EatlTraceTime@ATL@@YAXXZ ; ATL::atlTraceTime$initializer$
CRT$XCU	ENDS
;	COMDAT CRT$XCU
CRT$XCU	SEGMENT
?atlTraceCache$initializer$@ATL@@3P6AXXZEA DQ FLAT:??__EatlTraceCache@ATL@@YAXXZ ; ATL::atlTraceCache$initializer$
CRT$XCU	ENDS
;	COMDAT CRT$XCU
CRT$XCU	SEGMENT
?atlTraceStencil$initializer$@ATL@@3P6AXXZEA DQ FLAT:??__EatlTraceStencil@ATL@@YAXXZ ; ATL::atlTraceStencil$initializer$
CRT$XCU	ENDS
;	COMDAT CRT$XCU
CRT$XCU	SEGMENT
?atlTraceString$initializer$@ATL@@3P6AXXZEA DQ FLAT:??__EatlTraceString@ATL@@YAXXZ ; ATL::atlTraceString$initializer$
CRT$XCU	ENDS
;	COMDAT CRT$XCU
CRT$XCU	SEGMENT
?atlTraceMap$initializer$@ATL@@3P6AXXZEA DQ FLAT:??__EatlTraceMap@ATL@@YAXXZ ; ATL::atlTraceMap$initializer$
CRT$XCU	ENDS
;	COMDAT CRT$XCU
CRT$XCU	SEGMENT
?atlTraceUtil$initializer$@ATL@@3P6AXXZEA DQ FLAT:??__EatlTraceUtil@ATL@@YAXXZ ; ATL::atlTraceUtil$initializer$
CRT$XCU	ENDS
;	COMDAT CRT$XCU
CRT$XCU	SEGMENT
?atlTraceSecurity$initializer$@ATL@@3P6AXXZEA DQ FLAT:??__EatlTraceSecurity@ATL@@YAXXZ ; ATL::atlTraceSecurity$initializer$
CRT$XCU	ENDS
;	COMDAT CRT$XCU
CRT$XCU	SEGMENT
?atlTraceSync$initializer$@ATL@@3P6AXXZEA DQ FLAT:??__EatlTraceSync@ATL@@YAXXZ ; ATL::atlTraceSync$initializer$
CRT$XCU	ENDS
;	COMDAT CRT$XCU
CRT$XCU	SEGMENT
?atlTraceISAPI$initializer$@ATL@@3P6AXXZEA DQ FLAT:??__EatlTraceISAPI@ATL@@YAXXZ ; ATL::atlTraceISAPI$initializer$
CRT$XCU	ENDS
;	COMDAT CRT$XCU
CRT$XCU	SEGMENT
?_AtlComModule$initializer$@ATL@@3P6AXXZEA DQ FLAT:??__E_AtlComModule@ATL@@YAXXZ ; ATL::_AtlComModule$initializer$
CRT$XCU	ENDS
;	COMDAT CRT$XCU
CRT$XCU	SEGMENT
?_AtlWinModule$initializer$@ATL@@3P6AXXZEA DQ FLAT:??__E_AtlWinModule@ATL@@YAXXZ ; ATL::_AtlWinModule$initializer$
CRT$XCU	ENDS
;	COMDAT CRT$XCU
CRT$XCU	SEGMENT
??isInitialized$initializer$@CAtlStringMgr@ATL@@0P6AXXZEA@@3P6AXXZEA DQ FLAT:??__E?isInitialized@CAtlStringMgr@ATL@@0_NA@@YAXXZ ; ??isInitialized$initializer$@CAtlStringMgr@ATL@@0P6AXXZEA@@3P6AXXZEA
CRT$XCU	ENDS
CRT$XCU	SEGMENT
??staticMetaObject$initializer$@MoldMachine@@2P6AXXZEA@@3P6AXXZEA DQ FLAT:??__E?staticMetaObject@MoldMachine@@2UQMetaObject@@B@@YAXXZ ; ??staticMetaObject$initializer$@MoldMachine@@2P6AXXZEA@@3P6AXXZEA
CRT$XCU	ENDS
; Function compile flags: /Odtp
;	COMDAT ??__E?staticMetaObject@MoldMachine@@2UQMetaObject@@B@@YAXXZ
text$di	SEGMENT
??__E?staticMetaObject@MoldMachine@@2UQMetaObject@@B@@YAXXZ PROC ; `dynamic initializer for 'MoldMachine::staticMetaObject'', COMDAT
; File c:\users\lx\desktop\moldmachine\moldmachine\moldmachine\x64\debug\moc\moc_moldmachine.cpp
; Line 144
	mov	rax, QWORD PTR __imp_?staticMetaObject@QMainWindow@@2UQMetaObject@@B
	mov	QWORD PTR ?staticMetaObject@MoldMachine@@2UQMetaObject@@B, rax
; Line 145
	lea	rax, OFFSET FLAT:?qt_meta_stringdata_MoldMachine@@3Uqt_meta_stringdata_MoldMachine_t@@B
	mov	QWORD PTR ?staticMetaObject@MoldMachine@@2UQMetaObject@@B+8, rax
; Line 146
	lea	rax, OFFSET FLAT:?qt_meta_data_MoldMachine@@3QBIB
	mov	QWORD PTR ?staticMetaObject@MoldMachine@@2UQMetaObject@@B+16, rax
; Line 147
	lea	rax, OFFSET FLAT:?qt_static_metacall@MoldMachine@@CAXPEAVQObject@@W4Call@QMetaObject@@HPEAPEAX@Z ; MoldMachine::qt_static_metacall
	mov	QWORD PTR ?staticMetaObject@MoldMachine@@2UQMetaObject@@B+24, rax
; Line 148
	mov	QWORD PTR ?staticMetaObject@MoldMachine@@2UQMetaObject@@B+32, 0
; Line 149
	mov	QWORD PTR ?staticMetaObject@MoldMachine@@2UQMetaObject@@B+40, 0
	ret	0
??__E?staticMetaObject@MoldMachine@@2UQMetaObject@@B@@YAXXZ ENDP ; `dynamic initializer for 'MoldMachine::staticMetaObject''
text$di	ENDS
; Function compile flags: /Odtp
_TEXT	SEGMENT
tv69 = 32
_t$1 = 40
$T2 = 48
$T3 = 56
tv152 = 64
tv154 = 72
$T4 = 80
$T5 = 88
_o$ = 112
_c$ = 120
_id$ = 128
_a$ = 136
?qt_static_metacall@MoldMachine@@CAXPEAVQObject@@W4Call@QMetaObject@@HPEAPEAX@Z PROC ; MoldMachine::qt_static_metacall
; File c:\users\lx\desktop\moldmachine\moldmachine\moldmachine\x64\debug\moc\moc_moldmachine.cpp
; Line 118
$LN25:
	mov	QWORD PTR [rsp+32], r9
	mov	DWORD PTR [rsp+24], r8d
	mov	DWORD PTR [rsp+16], edx
	mov	QWORD PTR [rsp+8], rcx
	sub	rsp, 104				; 00000068H
; Line 119
	cmp	DWORD PTR _c$[rsp], 0
	jne	$LN4@qt_static_
; Line 120
	mov	rax, QWORD PTR _o$[rsp]
	mov	QWORD PTR _t$1[rsp], rax
; Line 122
	mov	eax, DWORD PTR _id$[rsp]
	mov	DWORD PTR tv69[rsp], eax
	cmp	DWORD PTR tv69[rsp], 14
	ja	$LN4@qt_static_
	movsxd	rax, DWORD PTR tv69[rsp]
	lea	rcx, OFFSET FLAT:__ImageBase
	mov	eax, DWORD PTR $LN24@qt_static_[rcx+rax*4]
	add	rax, rcx
	jmp	rax
$LN5@qt_static_:
; Line 123
	mov	rcx, QWORD PTR _t$1[rsp]
	call	?saveConfig2XML@MoldMachine@@AEAAXXZ	; MoldMachine::saveConfig2XML
	jmp	$LN4@qt_static_
$LN6@qt_static_:
; Line 124
	mov	rcx, QWORD PTR _t$1[rsp]
	call	?ENetIOSetting@MoldMachine@@AEAAXXZ	; MoldMachine::ENetIOSetting
	jmp	$LN4@qt_static_
$LN7@qt_static_:
; Line 125
	mov	rcx, QWORD PTR _t$1[rsp]
	call	?imageSetting@MoldMachine@@AEAAXXZ	; MoldMachine::imageSetting
	jmp	$LN4@qt_static_
$LN8@qt_static_:
; Line 126
	mov	rcx, QWORD PTR _t$1[rsp]
	call	?cycleTimesSetting@MoldMachine@@AEAAXXZ	; MoldMachine::cycleTimesSetting
	jmp	$LN4@qt_static_
$LN9@qt_static_:
; Line 127
	mov	rcx, QWORD PTR _t$1[rsp]
	call	?cycleStepSetting@MoldMachine@@AEAAXXZ	; MoldMachine::cycleStepSetting
	jmp	$LN4@qt_static_
$LN10@qt_static_:
; Line 128
	mov	rcx, QWORD PTR _t$1[rsp]
	call	?counterSetting@MoldMachine@@AEAAXXZ	; MoldMachine::counterSetting
	jmp	$LN4@qt_static_
$LN11@qt_static_:
; Line 129
	mov	rcx, QWORD PTR _t$1[rsp]
	call	?delaySetting@MoldMachine@@AEAAXXZ	; MoldMachine::delaySetting
	jmp	$LN4@qt_static_
$LN12@qt_static_:
; Line 130
	mov	rcx, QWORD PTR _t$1[rsp]
	call	?dataSource@MoldMachine@@AEAAXXZ	; MoldMachine::dataSource
	jmp	$LN4@qt_static_
$LN13@qt_static_:
; Line 131
	mov	rcx, QWORD PTR _t$1[rsp]
	call	?aboutHelp@MoldMachine@@AEAAXXZ		; MoldMachine::aboutHelp
	jmp	$LN4@qt_static_
$LN14@qt_static_:
; Line 132
	mov	eax, 8
	imul	rax, rax, 1
	mov	rcx, QWORD PTR _a$[rsp]
	mov	rax, QWORD PTR [rcx+rax]
	mov	edx, DWORD PTR [rax]
	mov	rcx, QWORD PTR _t$1[rsp]
	call	?dealDataSrcChosen@MoldMachine@@AEAAXH@Z ; MoldMachine::dealDataSrcChosen
	jmp	$LN4@qt_static_
$LN15@qt_static_:
; Line 133
	mov	rcx, QWORD PTR _t$1[rsp]
	call	?runAll@MoldMachine@@AEAAXXZ		; MoldMachine::runAll
	jmp	$LN4@qt_static_
$LN16@qt_static_:
; Line 134
	mov	rcx, QWORD PTR _t$1[rsp]
	call	?stopAll@MoldMachine@@AEAAXXZ		; MoldMachine::stopAll
	jmp	$LN4@qt_static_
$LN17@qt_static_:
; Line 135
	mov	rcx, QWORD PTR _t$1[rsp]
	call	?dealThreadDone@MoldMachine@@AEAAXXZ	; MoldMachine::dealThreadDone
	jmp	$LN4@qt_static_
$LN18@qt_static_:
; Line 136
	mov	eax, 8
	imul	rax, rax, 1
	mov	rcx, QWORD PTR _a$[rsp]
	mov	rax, QWORD PTR [rcx+rax]
	mov	edx, DWORD PTR [rax]
	mov	rcx, QWORD PTR _t$1[rsp]
	call	?dealGrabImg@MoldMachine@@AEAAXH@Z	; MoldMachine::dealGrabImg
	jmp	$LN4@qt_static_
$LN19@qt_static_:
; Line 137
	lea	rax, QWORD PTR $T4[rsp]
	mov	QWORD PTR $T2[rsp], rax
	lea	rax, QWORD PTR $T5[rsp]
	mov	QWORD PTR $T3[rsp], rax
	mov	eax, 8
	imul	rax, rax, 3
	mov	rcx, QWORD PTR _a$[rsp]
	mov	rdx, QWORD PTR [rcx+rax]
	mov	rcx, QWORD PTR $T2[rsp]
	call	QWORD PTR __imp_??0QString@@QEAA@AEBV0@@Z
	mov	QWORD PTR tv152[rsp], rax
	mov	eax, 8
	imul	rax, rax, 2
	mov	rcx, QWORD PTR _a$[rsp]
	mov	rdx, QWORD PTR [rcx+rax]
	mov	rcx, QWORD PTR $T3[rsp]
	call	QWORD PTR __imp_??0QString@@QEAA@AEBV0@@Z
	mov	QWORD PTR tv154[rsp], rax
	mov	eax, 8
	imul	rax, rax, 1
	mov	rcx, QWORD PTR _a$[rsp]
	mov	rax, QWORD PTR [rcx+rax]
	mov	r9, QWORD PTR tv152[rsp]
	mov	r8, QWORD PTR tv154[rsp]
	mov	edx, DWORD PTR [rax]
	mov	rcx, QWORD PTR _t$1[rsp]
	call	?dealExcuteImg@MoldMachine@@AEAAXHVQString@@0@Z ; MoldMachine::dealExcuteImg
$LN4@qt_static_:
; Line 141
	add	rsp, 104				; 00000068H
	ret	0
$LN24@qt_static_:
	DD	$LN5@qt_static_
	DD	$LN6@qt_static_
	DD	$LN7@qt_static_
	DD	$LN8@qt_static_
	DD	$LN9@qt_static_
	DD	$LN10@qt_static_
	DD	$LN11@qt_static_
	DD	$LN12@qt_static_
	DD	$LN13@qt_static_
	DD	$LN14@qt_static_
	DD	$LN15@qt_static_
	DD	$LN16@qt_static_
	DD	$LN17@qt_static_
	DD	$LN18@qt_static_
	DD	$LN19@qt_static_
?qt_static_metacall@MoldMachine@@CAXPEAVQObject@@W4Call@QMetaObject@@HPEAPEAX@Z ENDP ; MoldMachine::qt_static_metacall
_TEXT	ENDS
; Function compile flags: /Odtp
_TEXT	SEGMENT
this$ = 48
_c$ = 56
_id$ = 64
_a$ = 72
?qt_metacall@MoldMachine@@UEAAHW4Call@QMetaObject@@HPEAPEAX@Z PROC ; MoldMachine::qt_metacall
; File c:\users\lx\desktop\moldmachine\moldmachine\moldmachine\x64\debug\moc\moc_moldmachine.cpp
; Line 167
$LN9:
	mov	QWORD PTR [rsp+32], r9
	mov	DWORD PTR [rsp+24], r8d
	mov	DWORD PTR [rsp+16], edx
	mov	QWORD PTR [rsp+8], rcx
	sub	rsp, 40					; 00000028H
; Line 168
	mov	r9, QWORD PTR _a$[rsp]
	mov	r8d, DWORD PTR _id$[rsp]
	mov	edx, DWORD PTR _c$[rsp]
	mov	rcx, QWORD PTR this$[rsp]
	call	QWORD PTR __imp_?qt_metacall@QMainWindow@@UEAAHW4Call@QMetaObject@@HPEAPEAX@Z
	mov	DWORD PTR _id$[rsp], eax
; Line 169
	cmp	DWORD PTR _id$[rsp], 0
	jge	SHORT $LN2@qt_metacal
; Line 170
	mov	eax, DWORD PTR _id$[rsp]
	jmp	SHORT $LN1@qt_metacal
$LN2@qt_metacal:
; Line 171
	cmp	DWORD PTR _c$[rsp], 0
	jne	SHORT $LN3@qt_metacal
; Line 172
	cmp	DWORD PTR _id$[rsp], 15
	jge	SHORT $LN5@qt_metacal
; Line 173
	mov	r9, QWORD PTR _a$[rsp]
	mov	r8d, DWORD PTR _id$[rsp]
	mov	edx, DWORD PTR _c$[rsp]
	mov	rcx, QWORD PTR this$[rsp]
	call	?qt_static_metacall@MoldMachine@@CAXPEAVQObject@@W4Call@QMetaObject@@HPEAPEAX@Z ; MoldMachine::qt_static_metacall
$LN5@qt_metacal:
; Line 174
	mov	eax, DWORD PTR _id$[rsp]
	sub	eax, 15
	mov	DWORD PTR _id$[rsp], eax
	jmp	SHORT $LN4@qt_metacal
$LN3@qt_metacal:
; Line 175
	cmp	DWORD PTR _c$[rsp], 12
	jne	SHORT $LN6@qt_metacal
; Line 176
	cmp	DWORD PTR _id$[rsp], 15
	jge	SHORT $LN7@qt_metacal
; Line 177
	mov	eax, 8
	imul	rax, rax, 0
	mov	rcx, QWORD PTR _a$[rsp]
	mov	rax, QWORD PTR [rcx+rax]
	mov	DWORD PTR [rax], -1
$LN7@qt_metacal:
; Line 178
	mov	eax, DWORD PTR _id$[rsp]
	sub	eax, 15
	mov	DWORD PTR _id$[rsp], eax
$LN6@qt_metacal:
$LN4@qt_metacal:
; Line 180
	mov	eax, DWORD PTR _id$[rsp]
$LN1@qt_metacal:
; Line 181
	add	rsp, 40					; 00000028H
	ret	0
?qt_metacall@MoldMachine@@UEAAHW4Call@QMetaObject@@HPEAPEAX@Z ENDP ; MoldMachine::qt_metacall
_TEXT	ENDS
; Function compile flags: /Odtp
_TEXT	SEGMENT
this$ = 48
_clname$ = 56
?qt_metacast@MoldMachine@@UEAAPEAXPEBD@Z PROC		; MoldMachine::qt_metacast
; File c:\users\lx\desktop\moldmachine\moldmachine\moldmachine\x64\debug\moc\moc_moldmachine.cpp
; Line 159
$LN5:
	mov	QWORD PTR [rsp+16], rdx
	mov	QWORD PTR [rsp+8], rcx
	sub	rsp, 40					; 00000028H
; Line 160
	cmp	QWORD PTR _clname$[rsp], 0
	jne	SHORT $LN2@qt_metacas
	xor	eax, eax
	jmp	SHORT $LN1@qt_metacas
$LN2@qt_metacas:
; Line 161
	lea	rdx, OFFSET FLAT:?qt_meta_stringdata_MoldMachine@@3Uqt_meta_stringdata_MoldMachine_t@@B+504
	mov	rcx, QWORD PTR _clname$[rsp]
	call	strcmp
	test	eax, eax
	jne	SHORT $LN3@qt_metacas
; Line 162
	mov	rax, QWORD PTR this$[rsp]
	jmp	SHORT $LN1@qt_metacas
$LN3@qt_metacas:
; Line 163
	mov	rdx, QWORD PTR _clname$[rsp]
	mov	rcx, QWORD PTR this$[rsp]
	call	QWORD PTR __imp_?qt_metacast@QMainWindow@@UEAAPEAXPEBD@Z
$LN1@qt_metacas:
; Line 164
	add	rsp, 40					; 00000028H
	ret	0
?qt_metacast@MoldMachine@@UEAAPEAXPEBD@Z ENDP		; MoldMachine::qt_metacast
_TEXT	ENDS
; Function compile flags: /Odtp
_TEXT	SEGMENT
tv82 = 32
this$ = 64
?metaObject@MoldMachine@@UEBAPEBUQMetaObject@@XZ PROC	; MoldMachine::metaObject
; File c:\users\lx\desktop\moldmachine\moldmachine\moldmachine\x64\debug\moc\moc_moldmachine.cpp
; Line 154
$LN5:
	mov	QWORD PTR [rsp+8], rcx
	sub	rsp, 56					; 00000038H
; Line 155
	mov	rax, QWORD PTR this$[rsp]
	add	rax, 8
	mov	rcx, rax
	call	??C?$QScopedPointer@VQObjectData@@U?$QScopedPointerDeleter@VQObjectData@@@@@@QEBAPEAVQObjectData@@XZ ; QScopedPointer<QObjectData,QScopedPointerDeleter<QObjectData> >::operator->
	cmp	QWORD PTR [rax+40], 0
	je	SHORT $LN3@metaObject
	mov	rax, QWORD PTR this$[rsp]
	add	rax, 8
	mov	rcx, rax
	call	??C?$QScopedPointer@VQObjectData@@U?$QScopedPointerDeleter@VQObjectData@@@@@@QEBAPEAVQObjectData@@XZ ; QScopedPointer<QObjectData,QScopedPointerDeleter<QObjectData> >::operator->
	mov	rcx, rax
	call	QWORD PTR __imp_?dynamicMetaObject@QObjectData@@QEBAPEAUQMetaObject@@XZ
	mov	QWORD PTR tv82[rsp], rax
	jmp	SHORT $LN4@metaObject
$LN3@metaObject:
	lea	rax, OFFSET FLAT:?staticMetaObject@MoldMachine@@2UQMetaObject@@B ; MoldMachine::staticMetaObject
	mov	QWORD PTR tv82[rsp], rax
$LN4@metaObject:
	mov	rax, QWORD PTR tv82[rsp]
; Line 156
	add	rsp, 56					; 00000038H
	ret	0
?metaObject@MoldMachine@@UEBAPEBUQMetaObject@@XZ ENDP	; MoldMachine::metaObject
_TEXT	ENDS
; Function compile flags: /Odtp
;	COMDAT ??__E?isInitialized@CAtlStringMgr@ATL@@0_NA@@YAXXZ
text$di	SEGMENT
??__E?isInitialized@CAtlStringMgr@ATL@@0_NA@@YAXXZ PROC	; `dynamic initializer for 'ATL::CAtlStringMgr::isInitialized'', COMDAT
; File d:\visual studio\vc\atlmfc\include\atlstr.h
; Line 165
	sub	rsp, 40					; 00000028H
	call	?StaticInitialize@CAtlStringMgr@ATL@@CA_NXZ ; ATL::CAtlStringMgr::StaticInitialize
	mov	BYTE PTR ?isInitialized@CAtlStringMgr@ATL@@0_NA, al ; ATL::CAtlStringMgr::isInitialized
	add	rsp, 40					; 00000028H
	ret	0
??__E?isInitialized@CAtlStringMgr@ATL@@0_NA@@YAXXZ ENDP	; `dynamic initializer for 'ATL::CAtlStringMgr::isInitialized''
text$di	ENDS
; Function compile flags: /Odtp
;	COMDAT ??$AtlAdd@K@ATL@@YAJPEAKKK@Z
_TEXT	SEGMENT
ptResult$ = 48
tLeft$ = 56
tRight$ = 64
??$AtlAdd@K@ATL@@YAJPEAKKK@Z PROC			; ATL::AtlAdd<unsigned long>, COMDAT
; File d:\visual studio\vc\atlmfc\include\atlalloc.h
; Line 99
$LN4:
	mov	DWORD PTR [rsp+24], r8d
	mov	DWORD PTR [rsp+16], edx
	mov	QWORD PTR [rsp+8], rcx
	sub	rsp, 40					; 00000028H
; Line 100
	mov	eax, -1					; ffffffffH
	sub	eax, DWORD PTR tLeft$[rsp]
	cmp	eax, DWORD PTR tRight$[rsp]
	jae	SHORT $LN2@AtlAdd
; Line 102
	mov	ecx, 534				; 00000216H
	call	HRESULT_FROM_WIN32
	jmp	SHORT $LN1@AtlAdd
$LN2@AtlAdd:
; Line 104
	mov	eax, DWORD PTR tRight$[rsp]
	mov	ecx, DWORD PTR tLeft$[rsp]
	add	ecx, eax
	mov	eax, ecx
	mov	rcx, QWORD PTR ptResult$[rsp]
	mov	DWORD PTR [rcx], eax
; Line 105
	xor	eax, eax
$LN1@AtlAdd:
; Line 106
	add	rsp, 40					; 00000028H
	ret	0
??$AtlAdd@K@ATL@@YAJPEAKKK@Z ENDP			; ATL::AtlAdd<unsigned long>
_TEXT	ENDS
; Function compile flags: /Odtp
;	COMDAT ??$AtlAlignUp@H@ATL@@YAHHK@Z
_TEXT	SEGMENT
n$ = 8
nAlign$ = 16
??$AtlAlignUp@H@ATL@@YAHHK@Z PROC			; ATL::AtlAlignUp<int>, COMDAT
; File d:\visual studio\vc\atlmfc\include\atlmem.h
; Line 28
	mov	DWORD PTR [rsp+16], edx
	mov	DWORD PTR [rsp+8], ecx
; Line 29
	mov	eax, DWORD PTR n$[rsp]
	mov	ecx, DWORD PTR nAlign$[rsp]
	lea	eax, DWORD PTR [rax+rcx-1]
	mov	ecx, DWORD PTR nAlign$[rsp]
	dec	ecx
	not	ecx
	and	eax, ecx
; Line 30
	ret	0
??$AtlAlignUp@H@ATL@@YAHHK@Z ENDP			; ATL::AtlAlignUp<int>
_TEXT	ENDS
; Function compile flags: /Odtp
;	COMDAT ??__FstrMgr@?1??GetInstance@CAtlStringMgr@ATL@@SAPEAUIAtlStringMgr@2@XZ@YAXXZ
text$yd	SEGMENT
??__FstrMgr@?1??GetInstance@CAtlStringMgr@ATL@@SAPEAUIAtlStringMgr@2@XZ@YAXXZ PROC ; `ATL::CAtlStringMgr::GetInstance'::`2'::`dynamic atexit destructor for 'strMgr'', COMDAT
$LN3:
	sub	rsp, 40					; 00000028H
	lea	rcx, OFFSET FLAT:?strMgr@?1??GetInstance@CAtlStringMgr@ATL@@SAPEAUIAtlStringMgr@3@XZ@4V23@A ; `ATL::CAtlStringMgr::GetInstance'::`2'::strMgr
	call	??1CAtlStringMgr@ATL@@UEAA@XZ		; ATL::CAtlStringMgr::~CAtlStringMgr
	add	rsp, 40					; 00000028H
	ret	0
??__FstrMgr@?1??GetInstance@CAtlStringMgr@ATL@@SAPEAUIAtlStringMgr@2@XZ@YAXXZ ENDP ; `ATL::CAtlStringMgr::GetInstance'::`2'::`dynamic atexit destructor for 'strMgr''
text$yd	ENDS
; Function compile flags: /Odtp
;	COMDAT ??__FstrHeap@?1??GetInstance@CAtlStringMgr@ATL@@SAPEAUIAtlStringMgr@2@XZ@YAXXZ
text$yd	SEGMENT
??__FstrHeap@?1??GetInstance@CAtlStringMgr@ATL@@SAPEAUIAtlStringMgr@2@XZ@YAXXZ PROC ; `ATL::CAtlStringMgr::GetInstance'::`2'::`dynamic atexit destructor for 'strHeap'', COMDAT
$LN3:
	sub	rsp, 40					; 00000028H
	lea	rcx, OFFSET FLAT:?strHeap@?1??GetInstance@CAtlStringMgr@ATL@@SAPEAUIAtlStringMgr@3@XZ@4VCWin32Heap@3@A ; `ATL::CAtlStringMgr::GetInstance'::`2'::strHeap
	call	??1CWin32Heap@ATL@@UEAA@XZ		; ATL::CWin32Heap::~CWin32Heap
	add	rsp, 40					; 00000028H
	ret	0
??__FstrHeap@?1??GetInstance@CAtlStringMgr@ATL@@SAPEAUIAtlStringMgr@2@XZ@YAXXZ ENDP ; `ATL::CAtlStringMgr::GetInstance'::`2'::`dynamic atexit destructor for 'strHeap''
text$yd	ENDS
; Function compile flags: /Odtp
;	COMDAT ??_GCAtlStringMgr@ATL@@UEAAPEAXI@Z
_TEXT	SEGMENT
this$ = 48
__flags$ = 56
??_GCAtlStringMgr@ATL@@UEAAPEAXI@Z PROC			; ATL::CAtlStringMgr::`scalar deleting destructor', COMDAT
$LN4:
	mov	DWORD PTR [rsp+16], edx
	mov	QWORD PTR [rsp+8], rcx
	sub	rsp, 40					; 00000028H
	mov	rcx, QWORD PTR this$[rsp]
	call	??1CAtlStringMgr@ATL@@UEAA@XZ		; ATL::CAtlStringMgr::~CAtlStringMgr
	mov	eax, DWORD PTR __flags$[rsp]
	and	eax, 1
	test	eax, eax
	je	SHORT $LN2@scalar
	mov	edx, 48					; 00000030H
	mov	rcx, QWORD PTR this$[rsp]
	call	??3@YAXPEAX_K@Z				; operator delete
$LN2@scalar:
	mov	rax, QWORD PTR this$[rsp]
	add	rsp, 40					; 00000028H
	ret	0
??_GCAtlStringMgr@ATL@@UEAAPEAXI@Z ENDP			; ATL::CAtlStringMgr::`scalar deleting destructor'
_TEXT	ENDS
; Function compile flags: /Odtp
;	COMDAT ?StaticInitialize@CAtlStringMgr@ATL@@CA_NXZ
_TEXT	SEGMENT
?StaticInitialize@CAtlStringMgr@ATL@@CA_NXZ PROC	; ATL::CAtlStringMgr::StaticInitialize, COMDAT
; File d:\visual studio\vc\atlmfc\include\atlstr.h
; Line 157
$LN3:
	sub	rsp, 40					; 00000028H
; Line 158
	call	?GetInstance@CAtlStringMgr@ATL@@SAPEAUIAtlStringMgr@2@XZ ; ATL::CAtlStringMgr::GetInstance
; Line 159
	mov	al, 1
; Line 160
	add	rsp, 40					; 00000028H
	ret	0
?StaticInitialize@CAtlStringMgr@ATL@@CA_NXZ ENDP	; ATL::CAtlStringMgr::StaticInitialize
_TEXT	ENDS
; Function compile flags: /Odtp
;	COMDAT ?Clone@CAtlStringMgr@ATL@@UEAAPEAUIAtlStringMgr@2@XZ
_TEXT	SEGMENT
this$ = 8
?Clone@CAtlStringMgr@ATL@@UEAAPEAUIAtlStringMgr@2@XZ PROC ; ATL::CAtlStringMgr::Clone, COMDAT
; File d:\visual studio\vc\atlmfc\include\atlstr.h
; Line 148
	mov	QWORD PTR [rsp+8], rcx
; Line 149
	mov	rax, QWORD PTR this$[rsp]
; Line 150
	ret	0
?Clone@CAtlStringMgr@ATL@@UEAAPEAUIAtlStringMgr@2@XZ ENDP ; ATL::CAtlStringMgr::Clone
_TEXT	ENDS
; Function compile flags: /Odtp
;	COMDAT ?GetNilString@CAtlStringMgr@ATL@@UEAAPEAUCStringData@2@XZ
_TEXT	SEGMENT
this$ = 48
?GetNilString@CAtlStringMgr@ATL@@UEAAPEAUCStringData@2@XZ PROC ; ATL::CAtlStringMgr::GetNilString, COMDAT
; File d:\visual studio\vc\atlmfc\include\atlstr.h
; Line 143
$LN3:
	mov	QWORD PTR [rsp+8], rcx
	sub	rsp, 40					; 00000028H
; Line 144
	mov	rax, QWORD PTR this$[rsp]
	add	rax, 16
	mov	rcx, rax
	call	?AddRef@CStringData@ATL@@QEAAXXZ	; ATL::CStringData::AddRef
; Line 145
	mov	rax, QWORD PTR this$[rsp]
	add	rax, 16
; Line 146
	add	rsp, 40					; 00000028H
	ret	0
?GetNilString@CAtlStringMgr@ATL@@UEAAPEAUCStringData@2@XZ ENDP ; ATL::CAtlStringMgr::GetNilString
_TEXT	ENDS
; Function compile flags: /Odtp
;	COMDAT ?Reallocate@CAtlStringMgr@ATL@@UEAAPEAUCStringData@2@PEAU32@HH@Z
_TEXT	SEGMENT
nAlignedChars$ = 48
tv65 = 52
__atl_condVal$1 = 56
tv134 = 60
__atl_condVal$2 = 64
nDataBytes$ = 68
nTotalSize$ = 72
pNewData$ = 80
tv161 = 88
tv171 = 96
this$ = 128
pData$ = 136
nChars$ = 144
nCharSize$ = 152
?Reallocate@CAtlStringMgr@ATL@@UEAAPEAUCStringData@2@PEAU32@HH@Z PROC ; ATL::CAtlStringMgr::Reallocate, COMDAT
; File d:\visual studio\vc\atlmfc\include\atlstr.h
; Line 112
$LN22:
	mov	DWORD PTR [rsp+32], r9d
	mov	DWORD PTR [rsp+24], r8d
	mov	QWORD PTR [rsp+16], rdx
	mov	QWORD PTR [rsp+8], rcx
	sub	rsp, 120				; 00000078H
$LN4@Reallocate:
; Line 113
	cmp	DWORD PTR nChars$[rsp], 0
	jl	SHORT $LN15@Reallocate
	mov	DWORD PTR tv65[rsp], 1
	jmp	SHORT $LN16@Reallocate
$LN15@Reallocate:
	mov	DWORD PTR tv65[rsp], 0
$LN16@Reallocate:
	mov	eax, DWORD PTR tv65[rsp]
	mov	DWORD PTR __atl_condVal$1[rsp], eax
	cmp	DWORD PTR __atl_condVal$1[rsp], 0
	jne	SHORT $LN17@Reallocate
	lea	rax, OFFSET FLAT:??_C@_1BM@GBBOFEAE@?$AA_?$AA_?$AAa?$AAt?$AAl?$AA_?$AAc?$AAo?$AAn?$AAd?$AAV?$AAa?$AAl?$AA?$AA@
	mov	QWORD PTR [rsp+40], rax
	lea	rax, OFFSET FLAT:??_C@_17CNPHIMPH@?$AA?$CF?$AAl?$AAs?$AA?$AA@
	mov	QWORD PTR [rsp+32], rax
	xor	r9d, r9d
	mov	r8d, 113				; 00000071H
	lea	rdx, OFFSET FLAT:??_C@_1FI@MIPKFKKB@?$AAD?$AA?3?$AA?2?$AAV?$AAi?$AAs?$AAu?$AAa?$AAl?$AA?5?$AAS?$AAt?$AAu?$AAd?$AAi?$AAo?$AA?2?$AAV?$AAC?$AA?2?$AAa?$AAt?$AAl?$AAm?$AAf?$AAc?$AA?2?$AAi?$AAn?$AAc?$AAl?$AAu@
	mov	ecx, 2
	call	QWORD PTR __imp__CrtDbgReportW
	cmp	eax, 1
	jne	SHORT $LN17@Reallocate
	int	3
	xor	eax, eax
$LN17@Reallocate:
	cmp	DWORD PTR __atl_condVal$1[rsp], 0
	jne	SHORT $LN8@Reallocate
	xor	eax, eax
	jmp	$LN1@Reallocate
$LN8@Reallocate:
	xor	eax, eax
	test	eax, eax
	jne	SHORT $LN4@Reallocate
; Line 114
	mov	rax, QWORD PTR pData$[rsp]
	mov	rcx, QWORD PTR this$[rsp]
	cmp	QWORD PTR [rax], rcx
	je	SHORT $LN18@Reallocate
	lea	rax, OFFSET FLAT:??_C@_1DE@KEEBDKDC@?$AAp?$AAD?$AAa?$AAt?$AAa?$AA?9?$AA?$DO?$AAp?$AAS?$AAt?$AAr?$AAi?$AAn?$AAg?$AAM?$AAg?$AAr?$AA?5?$AA?$DN?$AA?$DN?$AA?5?$AAt?$AAh?$AAi?$AAs?$AA?$AA@
	mov	QWORD PTR [rsp+40], rax
	lea	rax, OFFSET FLAT:??_C@_17CNPHIMPH@?$AA?$CF?$AAl?$AAs?$AA?$AA@
	mov	QWORD PTR [rsp+32], rax
	xor	r9d, r9d
	mov	r8d, 114				; 00000072H
	lea	rdx, OFFSET FLAT:??_C@_1FI@MIPKFKKB@?$AAD?$AA?3?$AA?2?$AAV?$AAi?$AAs?$AAu?$AAa?$AAl?$AA?5?$AAS?$AAt?$AAu?$AAd?$AAi?$AAo?$AA?2?$AAV?$AAC?$AA?2?$AAa?$AAt?$AAl?$AAm?$AAf?$AAc?$AA?2?$AAi?$AAn?$AAc?$AAl?$AAu@
	mov	ecx, 2
	call	QWORD PTR __imp__CrtDbgReportW
	cmp	eax, 1
	jne	SHORT $LN18@Reallocate
	int	3
	xor	eax, eax
$LN18@Reallocate:
; Line 120
	mov	r8d, 1
	mov	edx, DWORD PTR nChars$[rsp]
	lea	rcx, QWORD PTR nChars$[rsp]
	call	??$AtlAdd@H@ATL@@YAJPEAHHH@Z		; ATL::AtlAdd<int>
	test	eax, eax
	jge	SHORT $LN9@Reallocate
; Line 122
	xor	eax, eax
	jmp	$LN1@Reallocate
$LN9@Reallocate:
; Line 125
	mov	edx, 8
	mov	ecx, DWORD PTR nChars$[rsp]
	call	??$AtlAlignUp@H@ATL@@YAHHK@Z		; ATL::AtlAlignUp<int>
	mov	DWORD PTR nAlignedChars$[rsp], eax
$LN7@Reallocate:
; Line 126
	mov	eax, DWORD PTR nAlignedChars$[rsp]
	cmp	DWORD PTR nChars$[rsp], eax
	jg	SHORT $LN19@Reallocate
	mov	DWORD PTR tv134[rsp], 1
	jmp	SHORT $LN20@Reallocate
$LN19@Reallocate:
	mov	DWORD PTR tv134[rsp], 0
$LN20@Reallocate:
	mov	eax, DWORD PTR tv134[rsp]
	mov	DWORD PTR __atl_condVal$2[rsp], eax
	cmp	DWORD PTR __atl_condVal$2[rsp], 0
	jne	SHORT $LN21@Reallocate
	lea	rax, OFFSET FLAT:??_C@_1BM@GBBOFEAE@?$AA_?$AA_?$AAa?$AAt?$AAl?$AA_?$AAc?$AAo?$AAn?$AAd?$AAV?$AAa?$AAl?$AA?$AA@
	mov	QWORD PTR [rsp+40], rax
	lea	rax, OFFSET FLAT:??_C@_17CNPHIMPH@?$AA?$CF?$AAl?$AAs?$AA?$AA@
	mov	QWORD PTR [rsp+32], rax
	xor	r9d, r9d
	mov	r8d, 126				; 0000007eH
	lea	rdx, OFFSET FLAT:??_C@_1FI@MIPKFKKB@?$AAD?$AA?3?$AA?2?$AAV?$AAi?$AAs?$AAu?$AAa?$AAl?$AA?5?$AAS?$AAt?$AAu?$AAd?$AAi?$AAo?$AA?2?$AAV?$AAC?$AA?2?$AAa?$AAt?$AAl?$AAm?$AAf?$AAc?$AA?2?$AAi?$AAn?$AAc?$AAl?$AAu@
	mov	ecx, 2
	call	QWORD PTR __imp__CrtDbgReportW
	cmp	eax, 1
	jne	SHORT $LN21@Reallocate
	int	3
	xor	eax, eax
$LN21@Reallocate:
	cmp	DWORD PTR __atl_condVal$2[rsp], 0
	jne	SHORT $LN10@Reallocate
	xor	eax, eax
	jmp	$LN1@Reallocate
$LN10@Reallocate:
	xor	eax, eax
	test	eax, eax
	jne	SHORT $LN7@Reallocate
; Line 128
	mov	r8d, DWORD PTR nCharSize$[rsp]
	mov	edx, DWORD PTR nAlignedChars$[rsp]
	lea	rcx, QWORD PTR nDataBytes$[rsp]
	call	??$AtlMultiply@K@ATL@@YAJPEAKKK@Z	; ATL::AtlMultiply<unsigned long>
	test	eax, eax
	jl	SHORT $LN12@Reallocate
	mov	r8d, DWORD PTR nDataBytes$[rsp]
	mov	edx, 24
	lea	rcx, QWORD PTR nTotalSize$[rsp]
	call	??$AtlAdd@K@ATL@@YAJPEAKKK@Z		; ATL::AtlAdd<unsigned long>
	test	eax, eax
	jge	SHORT $LN11@Reallocate
$LN12@Reallocate:
; Line 131
	xor	eax, eax
	jmp	SHORT $LN1@Reallocate
$LN11@Reallocate:
; Line 133
	mov	eax, DWORD PTR nTotalSize$[rsp]
	mov	rcx, QWORD PTR this$[rsp]
	mov	rcx, QWORD PTR [rcx+8]
	mov	rdx, QWORD PTR this$[rsp]
	mov	rdx, QWORD PTR [rdx+8]
	mov	QWORD PTR tv161[rsp], rdx
	mov	rcx, QWORD PTR [rcx]
	mov	QWORD PTR tv171[rsp], rcx
	mov	r8d, eax
	mov	rdx, QWORD PTR pData$[rsp]
	mov	rax, QWORD PTR tv161[rsp]
	mov	rcx, rax
	mov	rax, QWORD PTR tv171[rsp]
	call	QWORD PTR [rax+16]
	mov	QWORD PTR pNewData$[rsp], rax
; Line 134
	cmp	QWORD PTR pNewData$[rsp], 0
	jne	SHORT $LN13@Reallocate
; Line 136
	xor	eax, eax
	jmp	SHORT $LN1@Reallocate
$LN13@Reallocate:
; Line 138
	mov	eax, DWORD PTR nAlignedChars$[rsp]
	dec	eax
	mov	rcx, QWORD PTR pNewData$[rsp]
	mov	DWORD PTR [rcx+12], eax
; Line 140
	mov	rax, QWORD PTR pNewData$[rsp]
$LN1@Reallocate:
; Line 141
	add	rsp, 120				; 00000078H
	ret	0
?Reallocate@CAtlStringMgr@ATL@@UEAAPEAUCStringData@2@PEAU32@HH@Z ENDP ; ATL::CAtlStringMgr::Reallocate
_TEXT	ENDS
; Function compile flags: /Odtp
;	COMDAT ?Free@CAtlStringMgr@ATL@@UEAAXPEAUCStringData@2@@Z
_TEXT	SEGMENT
this$ = 64
pData$ = 72
?Free@CAtlStringMgr@ATL@@UEAAXPEAUCStringData@2@@Z PROC	; ATL::CAtlStringMgr::Free, COMDAT
; File d:\visual studio\vc\atlmfc\include\atlstr.h
; Line 102
$LN8:
	mov	QWORD PTR [rsp+16], rdx
	mov	QWORD PTR [rsp+8], rcx
	sub	rsp, 56					; 00000038H
$LN4@Free:
; Line 103
	cmp	QWORD PTR pData$[rsp], 0
	jne	SHORT $LN6@Free
	lea	rax, OFFSET FLAT:??_C@_1BG@IEBIBJEI@?$AAp?$AAD?$AAa?$AAt?$AAa?$AA?5?$AA?$CB?$AA?$DN?$AA?5?$AA0?$AA?$AA@
	mov	QWORD PTR [rsp+40], rax
	lea	rax, OFFSET FLAT:??_C@_17CNPHIMPH@?$AA?$CF?$AAl?$AAs?$AA?$AA@
	mov	QWORD PTR [rsp+32], rax
	xor	r9d, r9d
	mov	r8d, 103				; 00000067H
	lea	rdx, OFFSET FLAT:??_C@_1FI@MIPKFKKB@?$AAD?$AA?3?$AA?2?$AAV?$AAi?$AAs?$AAu?$AAa?$AAl?$AA?5?$AAS?$AAt?$AAu?$AAd?$AAi?$AAo?$AA?2?$AAV?$AAC?$AA?2?$AAa?$AAt?$AAl?$AAm?$AAf?$AAc?$AA?2?$AAi?$AAn?$AAc?$AAl?$AAu@
	mov	ecx, 2
	call	QWORD PTR __imp__CrtDbgReportW
	cmp	eax, 1
	jne	SHORT $LN6@Free
	int	3
	xor	eax, eax
$LN6@Free:
	xor	eax, eax
	test	eax, eax
	jne	SHORT $LN4@Free
; Line 104
	mov	rax, QWORD PTR pData$[rsp]
	mov	rcx, QWORD PTR this$[rsp]
	cmp	QWORD PTR [rax], rcx
	je	SHORT $LN7@Free
	lea	rax, OFFSET FLAT:??_C@_1DE@KEEBDKDC@?$AAp?$AAD?$AAa?$AAt?$AAa?$AA?9?$AA?$DO?$AAp?$AAS?$AAt?$AAr?$AAi?$AAn?$AAg?$AAM?$AAg?$AAr?$AA?5?$AA?$DN?$AA?$DN?$AA?5?$AAt?$AAh?$AAi?$AAs?$AA?$AA@
	mov	QWORD PTR [rsp+40], rax
	lea	rax, OFFSET FLAT:??_C@_17CNPHIMPH@?$AA?$CF?$AAl?$AAs?$AA?$AA@
	mov	QWORD PTR [rsp+32], rax
	xor	r9d, r9d
	mov	r8d, 104				; 00000068H
	lea	rdx, OFFSET FLAT:??_C@_1FI@MIPKFKKB@?$AAD?$AA?3?$AA?2?$AAV?$AAi?$AAs?$AAu?$AAa?$AAl?$AA?5?$AAS?$AAt?$AAu?$AAd?$AAi?$AAo?$AA?2?$AAV?$AAC?$AA?2?$AAa?$AAt?$AAl?$AAm?$AAf?$AAc?$AA?2?$AAi?$AAn?$AAc?$AAl?$AAu@
	mov	ecx, 2
	call	QWORD PTR __imp__CrtDbgReportW
	cmp	eax, 1
	jne	SHORT $LN7@Free
	int	3
	xor	eax, eax
$LN7@Free:
; Line 106
	mov	rax, QWORD PTR this$[rsp]
	mov	rax, QWORD PTR [rax+8]
	mov	rcx, QWORD PTR this$[rsp]
	mov	rcx, QWORD PTR [rcx+8]
	mov	rax, QWORD PTR [rax]
	mov	rdx, QWORD PTR pData$[rsp]
	call	QWORD PTR [rax+8]
; Line 107
	add	rsp, 56					; 00000038H
	ret	0
?Free@CAtlStringMgr@ATL@@UEAAXPEAUCStringData@2@@Z ENDP	; ATL::CAtlStringMgr::Free
_TEXT	ENDS
; Function compile flags: /Odtp
;	COMDAT ?Allocate@CAtlStringMgr@ATL@@UEAAPEAUCStringData@2@HH@Z
_TEXT	SEGMENT
nAlignedChars$ = 48
tv65 = 52
__atl_condVal$1 = 56
tv87 = 60
__atl_condVal$2 = 64
pData$ = 72
nDataBytes$ = 80
nTotalSize$ = 88
this$ = 112
nChars$ = 120
nCharSize$ = 128
?Allocate@CAtlStringMgr@ATL@@UEAAPEAUCStringData@2@HH@Z PROC ; ATL::CAtlStringMgr::Allocate, COMDAT
; File d:\visual studio\vc\atlmfc\include\atlstr.h
; Line 69
$LN21:
	mov	DWORD PTR [rsp+24], r8d
	mov	DWORD PTR [rsp+16], edx
	mov	QWORD PTR [rsp+8], rcx
	sub	rsp, 104				; 00000068H
$LN4@Allocate:
; Line 70
	cmp	DWORD PTR nChars$[rsp], 0
	jl	SHORT $LN15@Allocate
	mov	DWORD PTR tv65[rsp], 1
	jmp	SHORT $LN16@Allocate
$LN15@Allocate:
	mov	DWORD PTR tv65[rsp], 0
$LN16@Allocate:
	mov	eax, DWORD PTR tv65[rsp]
	mov	DWORD PTR __atl_condVal$1[rsp], eax
	cmp	DWORD PTR __atl_condVal$1[rsp], 0
	jne	SHORT $LN17@Allocate
	lea	rax, OFFSET FLAT:??_C@_1BM@GBBOFEAE@?$AA_?$AA_?$AAa?$AAt?$AAl?$AA_?$AAc?$AAo?$AAn?$AAd?$AAV?$AAa?$AAl?$AA?$AA@
	mov	QWORD PTR [rsp+40], rax
	lea	rax, OFFSET FLAT:??_C@_17CNPHIMPH@?$AA?$CF?$AAl?$AAs?$AA?$AA@
	mov	QWORD PTR [rsp+32], rax
	xor	r9d, r9d
	mov	r8d, 70					; 00000046H
	lea	rdx, OFFSET FLAT:??_C@_1FI@MIPKFKKB@?$AAD?$AA?3?$AA?2?$AAV?$AAi?$AAs?$AAu?$AAa?$AAl?$AA?5?$AAS?$AAt?$AAu?$AAd?$AAi?$AAo?$AA?2?$AAV?$AAC?$AA?2?$AAa?$AAt?$AAl?$AAm?$AAf?$AAc?$AA?2?$AAi?$AAn?$AAc?$AAl?$AAu@
	mov	ecx, 2
	call	QWORD PTR __imp__CrtDbgReportW
	cmp	eax, 1
	jne	SHORT $LN17@Allocate
	int	3
	xor	eax, eax
$LN17@Allocate:
	cmp	DWORD PTR __atl_condVal$1[rsp], 0
	jne	SHORT $LN8@Allocate
	xor	eax, eax
	jmp	$LN1@Allocate
$LN8@Allocate:
	xor	eax, eax
	test	eax, eax
	jne	SHORT $LN4@Allocate
; Line 76
	mov	r8d, 1
	mov	edx, DWORD PTR nChars$[rsp]
	lea	rcx, QWORD PTR nChars$[rsp]
	call	??$AtlAdd@H@ATL@@YAJPEAHHH@Z		; ATL::AtlAdd<int>
	test	eax, eax
	jge	SHORT $LN9@Allocate
; Line 78
	xor	eax, eax
	jmp	$LN1@Allocate
$LN9@Allocate:
; Line 81
	mov	edx, 8
	mov	ecx, DWORD PTR nChars$[rsp]
	call	??$AtlAlignUp@H@ATL@@YAHHK@Z		; ATL::AtlAlignUp<int>
	mov	DWORD PTR nAlignedChars$[rsp], eax
$LN7@Allocate:
; Line 82
	mov	eax, DWORD PTR nAlignedChars$[rsp]
	cmp	DWORD PTR nChars$[rsp], eax
	jg	SHORT $LN18@Allocate
	mov	DWORD PTR tv87[rsp], 1
	jmp	SHORT $LN19@Allocate
$LN18@Allocate:
	mov	DWORD PTR tv87[rsp], 0
$LN19@Allocate:
	mov	eax, DWORD PTR tv87[rsp]
	mov	DWORD PTR __atl_condVal$2[rsp], eax
	cmp	DWORD PTR __atl_condVal$2[rsp], 0
	jne	SHORT $LN20@Allocate
	lea	rax, OFFSET FLAT:??_C@_1BM@GBBOFEAE@?$AA_?$AA_?$AAa?$AAt?$AAl?$AA_?$AAc?$AAo?$AAn?$AAd?$AAV?$AAa?$AAl?$AA?$AA@
	mov	QWORD PTR [rsp+40], rax
	lea	rax, OFFSET FLAT:??_C@_17CNPHIMPH@?$AA?$CF?$AAl?$AAs?$AA?$AA@
	mov	QWORD PTR [rsp+32], rax
	xor	r9d, r9d
	mov	r8d, 82					; 00000052H
	lea	rdx, OFFSET FLAT:??_C@_1FI@MIPKFKKB@?$AAD?$AA?3?$AA?2?$AAV?$AAi?$AAs?$AAu?$AAa?$AAl?$AA?5?$AAS?$AAt?$AAu?$AAd?$AAi?$AAo?$AA?2?$AAV?$AAC?$AA?2?$AAa?$AAt?$AAl?$AAm?$AAf?$AAc?$AA?2?$AAi?$AAn?$AAc?$AAl?$AAu@
	mov	ecx, 2
	call	QWORD PTR __imp__CrtDbgReportW
	cmp	eax, 1
	jne	SHORT $LN20@Allocate
	int	3
	xor	eax, eax
$LN20@Allocate:
	cmp	DWORD PTR __atl_condVal$2[rsp], 0
	jne	SHORT $LN10@Allocate
	xor	eax, eax
	jmp	$LN1@Allocate
$LN10@Allocate:
	xor	eax, eax
	test	eax, eax
	jne	SHORT $LN7@Allocate
; Line 84
	movsxd	rax, DWORD PTR nCharSize$[rsp]
	movsxd	rcx, DWORD PTR nAlignedChars$[rsp]
	mov	r8, rax
	mov	rdx, rcx
	lea	rcx, QWORD PTR nDataBytes$[rsp]
	call	??$AtlMultiply@_K@ATL@@YAJPEA_K_K1@Z	; ATL::AtlMultiply<unsigned __int64>
	test	eax, eax
	jl	SHORT $LN12@Allocate
	mov	r8, QWORD PTR nDataBytes$[rsp]
	mov	edx, 24
	lea	rcx, QWORD PTR nTotalSize$[rsp]
	call	??$AtlAdd@_K@ATL@@YAJPEA_K_K1@Z		; ATL::AtlAdd<unsigned __int64>
	test	eax, eax
	jge	SHORT $LN11@Allocate
$LN12@Allocate:
; Line 87
	xor	eax, eax
	jmp	SHORT $LN1@Allocate
$LN11@Allocate:
; Line 89
	mov	rax, QWORD PTR this$[rsp]
	mov	rax, QWORD PTR [rax+8]
	mov	rcx, QWORD PTR this$[rsp]
	mov	rcx, QWORD PTR [rcx+8]
	mov	rax, QWORD PTR [rax]
	mov	rdx, QWORD PTR nTotalSize$[rsp]
	call	QWORD PTR [rax]
	mov	QWORD PTR pData$[rsp], rax
; Line 90
	cmp	QWORD PTR pData$[rsp], 0
	jne	SHORT $LN13@Allocate
; Line 92
	xor	eax, eax
	jmp	SHORT $LN1@Allocate
$LN13@Allocate:
; Line 94
	mov	rax, QWORD PTR pData$[rsp]
	mov	rcx, QWORD PTR this$[rsp]
	mov	QWORD PTR [rax], rcx
; Line 95
	mov	rax, QWORD PTR pData$[rsp]
	mov	DWORD PTR [rax+16], 1
; Line 96
	mov	eax, DWORD PTR nAlignedChars$[rsp]
	dec	eax
	mov	rcx, QWORD PTR pData$[rsp]
	mov	DWORD PTR [rcx+12], eax
; Line 97
	mov	rax, QWORD PTR pData$[rsp]
	mov	DWORD PTR [rax+8], 0
; Line 99
	mov	rax, QWORD PTR pData$[rsp]
$LN1@Allocate:
; Line 100
	add	rsp, 104				; 00000068H
	ret	0
?Allocate@CAtlStringMgr@ATL@@UEAAPEAUCStringData@2@HH@Z ENDP ; ATL::CAtlStringMgr::Allocate
_TEXT	ENDS
; Function compile flags: /Odtp
;	COMDAT ?GetInstance@CAtlStringMgr@ATL@@SAPEAUIAtlStringMgr@2@XZ
_TEXT	SEGMENT
?GetInstance@CAtlStringMgr@ATL@@SAPEAUIAtlStringMgr@2@XZ PROC ; ATL::CAtlStringMgr::GetInstance, COMDAT
; File d:\visual studio\vc\atlmfc\include\atlstr.h
; Line 55
$LN5:
	sub	rsp, 40					; 00000028H
; Line 58
	mov	eax, OFFSET FLAT:_Init_thread_epoch
	mov	eax, eax
	mov	ecx, DWORD PTR _tls_index
	mov	rdx, QWORD PTR gs:88
	mov	rcx, QWORD PTR [rdx+rcx*8]
	mov	eax, DWORD PTR [rax+rcx]
	cmp	DWORD PTR ?$TSS0@?1??GetInstance@CAtlStringMgr@ATL@@SAPEAUIAtlStringMgr@3@XZ@4HA, eax ; TSS0<`template-parameter-2',ATL::CAtlStringMgr::tInstance,ATL::IAtlStringMgr * __ptr64 * const volatile,void,int, ?? &>
	jle	SHORT $LN2@GetInstanc
	lea	rcx, OFFSET FLAT:?$TSS0@?1??GetInstance@CAtlStringMgr@ATL@@SAPEAUIAtlStringMgr@3@XZ@4HA ; TSS0<`template-parameter-2',ATL::CAtlStringMgr::tInstance,ATL::IAtlStringMgr * __ptr64 * const volatile,void,int, ?? &>
	call	_Init_thread_header
	cmp	DWORD PTR ?$TSS0@?1??GetInstance@CAtlStringMgr@ATL@@SAPEAUIAtlStringMgr@3@XZ@4HA, -1 ; TSS0<`template-parameter-2',ATL::CAtlStringMgr::tInstance,ATL::IAtlStringMgr * __ptr64 * const volatile,void,int, ?? &>
	jne	SHORT $LN2@GetInstanc
	call	QWORD PTR __imp_GetProcessHeap
	mov	rdx, rax
	lea	rcx, OFFSET FLAT:?strHeap@?1??GetInstance@CAtlStringMgr@ATL@@SAPEAUIAtlStringMgr@3@XZ@4VCWin32Heap@3@A ; `ATL::CAtlStringMgr::GetInstance'::`2'::strHeap
	call	??0CWin32Heap@ATL@@QEAA@PEAX@Z		; ATL::CWin32Heap::CWin32Heap
	lea	rcx, OFFSET FLAT:??__FstrHeap@?1??GetInstance@CAtlStringMgr@ATL@@SAPEAUIAtlStringMgr@2@XZ@YAXXZ ; `ATL::CAtlStringMgr::GetInstance'::`2'::`dynamic atexit destructor for 'strHeap''
	call	atexit
	lea	rcx, OFFSET FLAT:?$TSS0@?1??GetInstance@CAtlStringMgr@ATL@@SAPEAUIAtlStringMgr@3@XZ@4HA ; TSS0<`template-parameter-2',ATL::CAtlStringMgr::tInstance,ATL::IAtlStringMgr * __ptr64 * const volatile,void,int, ?? &>
	call	_Init_thread_footer
$LN2@GetInstanc:
; Line 59
	mov	eax, OFFSET FLAT:_Init_thread_epoch
	mov	eax, eax
	mov	ecx, DWORD PTR _tls_index
	mov	rdx, QWORD PTR gs:88
	mov	rcx, QWORD PTR [rdx+rcx*8]
	mov	eax, DWORD PTR [rax+rcx]
	cmp	DWORD PTR ?$TSS1@?1??GetInstance@CAtlStringMgr@ATL@@SAPEAUIAtlStringMgr@3@XZ@4HA, eax ; TSS1<`template-parameter-2',ATL::CAtlStringMgr::tInstance,ATL::IAtlStringMgr * __ptr64 * const volatile,void,int, ?? &>
	jle	SHORT $LN3@GetInstanc
	lea	rcx, OFFSET FLAT:?$TSS1@?1??GetInstance@CAtlStringMgr@ATL@@SAPEAUIAtlStringMgr@3@XZ@4HA ; TSS1<`template-parameter-2',ATL::CAtlStringMgr::tInstance,ATL::IAtlStringMgr * __ptr64 * const volatile,void,int, ?? &>
	call	_Init_thread_header
	cmp	DWORD PTR ?$TSS1@?1??GetInstance@CAtlStringMgr@ATL@@SAPEAUIAtlStringMgr@3@XZ@4HA, -1 ; TSS1<`template-parameter-2',ATL::CAtlStringMgr::tInstance,ATL::IAtlStringMgr * __ptr64 * const volatile,void,int, ?? &>
	jne	SHORT $LN3@GetInstanc
	lea	rdx, OFFSET FLAT:?strHeap@?1??GetInstance@CAtlStringMgr@ATL@@SAPEAUIAtlStringMgr@3@XZ@4VCWin32Heap@3@A ; `ATL::CAtlStringMgr::GetInstance'::`2'::strHeap
	lea	rcx, OFFSET FLAT:?strMgr@?1??GetInstance@CAtlStringMgr@ATL@@SAPEAUIAtlStringMgr@3@XZ@4V23@A ; `ATL::CAtlStringMgr::GetInstance'::`2'::strMgr
	call	??0CAtlStringMgr@ATL@@QEAA@PEAUIAtlMemMgr@1@@Z ; ATL::CAtlStringMgr::CAtlStringMgr
	lea	rcx, OFFSET FLAT:??__FstrMgr@?1??GetInstance@CAtlStringMgr@ATL@@SAPEAUIAtlStringMgr@2@XZ@YAXXZ ; `ATL::CAtlStringMgr::GetInstance'::`2'::`dynamic atexit destructor for 'strMgr''
	call	atexit
	lea	rcx, OFFSET FLAT:?$TSS1@?1??GetInstance@CAtlStringMgr@ATL@@SAPEAUIAtlStringMgr@3@XZ@4HA ; TSS1<`template-parameter-2',ATL::CAtlStringMgr::tInstance,ATL::IAtlStringMgr * __ptr64 * const volatile,void,int, ?? &>
	call	_Init_thread_footer
$LN3@GetInstanc:
; Line 62
	lea	rax, OFFSET FLAT:?strMgr@?1??GetInstance@CAtlStringMgr@ATL@@SAPEAUIAtlStringMgr@3@XZ@4V23@A ; `ATL::CAtlStringMgr::GetInstance'::`2'::strMgr
; Line 63
	add	rsp, 40					; 00000028H
	ret	0
?GetInstance@CAtlStringMgr@ATL@@SAPEAUIAtlStringMgr@2@XZ ENDP ; ATL::CAtlStringMgr::GetInstance
_TEXT	ENDS
; Function compile flags: /Odtp
;	COMDAT ??1CAtlStringMgr@ATL@@UEAA@XZ
_TEXT	SEGMENT
this$ = 8
??1CAtlStringMgr@ATL@@UEAA@XZ PROC			; ATL::CAtlStringMgr::~CAtlStringMgr, COMDAT
; File d:\visual studio\vc\atlmfc\include\atlstr.h
; Line 44
	mov	QWORD PTR [rsp+8], rcx
	mov	rax, QWORD PTR this$[rsp]
	lea	rcx, OFFSET FLAT:??_7CAtlStringMgr@ATL@@6B@
	mov	QWORD PTR [rax], rcx
; Line 45
	mov	BYTE PTR ?isInitialized@CAtlStringMgr@ATL@@0_NA, 0 ; ATL::CAtlStringMgr::isInitialized
; Line 46
	ret	0
??1CAtlStringMgr@ATL@@UEAA@XZ ENDP			; ATL::CAtlStringMgr::~CAtlStringMgr
_TEXT	ENDS
; Function compile flags: /Odtp
;	COMDAT ??0CAtlStringMgr@ATL@@QEAA@PEAUIAtlMemMgr@1@@Z
_TEXT	SEGMENT
this$ = 48
pMemMgr$ = 56
??0CAtlStringMgr@ATL@@QEAA@PEAUIAtlMemMgr@1@@Z PROC	; ATL::CAtlStringMgr::CAtlStringMgr, COMDAT
; File d:\visual studio\vc\atlmfc\include\atlstr.h
; Line 40
$LN3:
	mov	QWORD PTR [rsp+16], rdx
	mov	QWORD PTR [rsp+8], rcx
	sub	rsp, 40					; 00000028H
	mov	rax, QWORD PTR this$[rsp]
	lea	rcx, OFFSET FLAT:??_7CAtlStringMgr@ATL@@6B@
	mov	QWORD PTR [rax], rcx
; Line 39
	mov	rax, QWORD PTR this$[rsp]
	mov	rcx, QWORD PTR pMemMgr$[rsp]
	mov	QWORD PTR [rax+8], rcx
; Line 40
	mov	rax, QWORD PTR this$[rsp]
	add	rax, 16
	mov	rcx, rax
	call	??0CNilStringData@ATL@@QEAA@XZ		; ATL::CNilStringData::CNilStringData
; Line 41
	mov	rax, QWORD PTR this$[rsp]
	add	rax, 16
	mov	rdx, QWORD PTR this$[rsp]
	mov	rcx, rax
	call	?SetManager@CNilStringData@ATL@@QEAAXPEAUIAtlStringMgr@2@@Z ; ATL::CNilStringData::SetManager
; Line 42
	mov	rax, QWORD PTR this$[rsp]
	add	rsp, 40					; 00000028H
	ret	0
??0CAtlStringMgr@ATL@@QEAA@PEAUIAtlMemMgr@1@@Z ENDP	; ATL::CAtlStringMgr::CAtlStringMgr
_TEXT	ENDS
; Function compile flags: /Odtp
;	COMDAT ?SetManager@CNilStringData@ATL@@QEAAXPEAUIAtlStringMgr@2@@Z
_TEXT	SEGMENT
this$ = 64
pMgr$ = 72
?SetManager@CNilStringData@ATL@@QEAAXPEAUIAtlStringMgr@2@@Z PROC ; ATL::CNilStringData::SetManager, COMDAT
; File d:\visual studio\vc\atlmfc\include\atlsimpstr.h
; Line 123
$LN4:
	mov	QWORD PTR [rsp+16], rdx
	mov	QWORD PTR [rsp+8], rcx
	sub	rsp, 56					; 00000038H
; Line 124
	mov	rax, QWORD PTR this$[rsp]
	cmp	QWORD PTR [rax], 0
	je	SHORT $LN3@SetManager
	lea	rax, OFFSET FLAT:??_C@_1CA@MEFFJNJ@?$AAp?$AAS?$AAt?$AAr?$AAi?$AAn?$AAg?$AAM?$AAg?$AAr?$AA?5?$AA?$DN?$AA?$DN?$AA?5?$AA0?$AA?$AA@
	mov	QWORD PTR [rsp+40], rax
	lea	rax, OFFSET FLAT:??_C@_17CNPHIMPH@?$AA?$CF?$AAl?$AAs?$AA?$AA@
	mov	QWORD PTR [rsp+32], rax
	xor	r9d, r9d
	mov	r8d, 124				; 0000007cH
	lea	rdx, OFFSET FLAT:??_C@_1GA@HKBCNNJD@?$AAD?$AA?3?$AA?2?$AAV?$AAi?$AAs?$AAu?$AAa?$AAl?$AA?5?$AAS?$AAt?$AAu?$AAd?$AAi?$AAo?$AA?2?$AAV?$AAC?$AA?2?$AAa?$AAt?$AAl?$AAm?$AAf?$AAc?$AA?2?$AAi?$AAn?$AAc?$AAl?$AAu@
	mov	ecx, 2
	call	QWORD PTR __imp__CrtDbgReportW
	cmp	eax, 1
	jne	SHORT $LN3@SetManager
	int	3
	xor	eax, eax
$LN3@SetManager:
; Line 125
	mov	rax, QWORD PTR this$[rsp]
	mov	rcx, QWORD PTR pMgr$[rsp]
	mov	QWORD PTR [rax], rcx
; Line 126
	add	rsp, 56					; 00000038H
	ret	0
?SetManager@CNilStringData@ATL@@QEAAXPEAUIAtlStringMgr@2@@Z ENDP ; ATL::CNilStringData::SetManager
_TEXT	ENDS
; Function compile flags: /Odtp
;	COMDAT ??0CNilStringData@ATL@@QEAA@XZ
_TEXT	SEGMENT
this$ = 8
??0CNilStringData@ATL@@QEAA@XZ PROC			; ATL::CNilStringData::CNilStringData, COMDAT
; File d:\visual studio\vc\atlmfc\include\atlsimpstr.h
; Line 112
	mov	QWORD PTR [rsp+8], rcx
; Line 114
	mov	rax, QWORD PTR this$[rsp]
	mov	QWORD PTR [rax], 0
; Line 115
	mov	rax, QWORD PTR this$[rsp]
	mov	DWORD PTR [rax+16], 2
; Line 116
	mov	rax, QWORD PTR this$[rsp]
	mov	DWORD PTR [rax+8], 0
; Line 117
	mov	rax, QWORD PTR this$[rsp]
	mov	DWORD PTR [rax+12], 0
; Line 118
	mov	eax, 2
	imul	rax, rax, 0
	xor	ecx, ecx
	mov	rdx, QWORD PTR this$[rsp]
	mov	WORD PTR [rdx+rax+24], cx
; Line 119
	mov	eax, 2
	imul	rax, rax, 1
	xor	ecx, ecx
	mov	rdx, QWORD PTR this$[rsp]
	mov	WORD PTR [rdx+rax+24], cx
; Line 120
	mov	rax, QWORD PTR this$[rsp]
	ret	0
??0CNilStringData@ATL@@QEAA@XZ ENDP			; ATL::CNilStringData::CNilStringData
_TEXT	ENDS
; Function compile flags: /Odtp
;	COMDAT ?AddRef@CStringData@ATL@@QEAAXXZ
_TEXT	SEGMENT
this$ = 64
?AddRef@CStringData@ATL@@QEAAXXZ PROC			; ATL::CStringData::AddRef, COMDAT
; File d:\visual studio\vc\atlmfc\include\atlsimpstr.h
; Line 63
$LN4:
	mov	QWORD PTR [rsp+8], rcx
	sub	rsp, 56					; 00000038H
; Line 64
	mov	rax, QWORD PTR this$[rsp]
	cmp	DWORD PTR [rax+16], 0
	jg	SHORT $LN3@AddRef
	lea	rax, OFFSET FLAT:??_C@_1BE@BLGCOAPB@?$AAn?$AAR?$AAe?$AAf?$AAs?$AA?5?$AA?$DO?$AA?5?$AA0?$AA?$AA@
	mov	QWORD PTR [rsp+40], rax
	lea	rax, OFFSET FLAT:??_C@_17CNPHIMPH@?$AA?$CF?$AAl?$AAs?$AA?$AA@
	mov	QWORD PTR [rsp+32], rax
	xor	r9d, r9d
	mov	r8d, 64					; 00000040H
	lea	rdx, OFFSET FLAT:??_C@_1GA@HKBCNNJD@?$AAD?$AA?3?$AA?2?$AAV?$AAi?$AAs?$AAu?$AAa?$AAl?$AA?5?$AAS?$AAt?$AAu?$AAd?$AAi?$AAo?$AA?2?$AAV?$AAC?$AA?2?$AAa?$AAt?$AAl?$AAm?$AAf?$AAc?$AA?2?$AAi?$AAn?$AAc?$AAl?$AAu@
	mov	ecx, 2
	call	QWORD PTR __imp__CrtDbgReportW
	cmp	eax, 1
	jne	SHORT $LN3@AddRef
	int	3
	xor	eax, eax
$LN3@AddRef:
; Line 65
	mov	rax, QWORD PTR this$[rsp]
	add	rax, 16
	lock inc DWORD PTR [rax]
; Line 66
	add	rsp, 56					; 00000038H
	ret	0
?AddRef@CStringData@ATL@@QEAAXXZ ENDP			; ATL::CStringData::AddRef
_TEXT	ENDS
; Function compile flags: /Odtp
;	COMDAT ??$AtlAdd@H@ATL@@YAJPEAHHH@Z
_TEXT	SEGMENT
ptResult$ = 48
tLeft$ = 56
tRight$ = 64
??$AtlAdd@H@ATL@@YAJPEAHHH@Z PROC			; ATL::AtlAdd<int>, COMDAT
; File d:\visual studio\vc\atlmfc\include\atlalloc.h
; Line 99
$LN4:
	mov	DWORD PTR [rsp+24], r8d
	mov	DWORD PTR [rsp+16], edx
	mov	QWORD PTR [rsp+8], rcx
	sub	rsp, 40					; 00000028H
; Line 100
	mov	eax, 2147483647				; 7fffffffH
	sub	eax, DWORD PTR tLeft$[rsp]
	cmp	eax, DWORD PTR tRight$[rsp]
	jge	SHORT $LN2@AtlAdd
; Line 102
	mov	ecx, 534				; 00000216H
	call	HRESULT_FROM_WIN32
	jmp	SHORT $LN1@AtlAdd
$LN2@AtlAdd:
; Line 104
	mov	eax, DWORD PTR tRight$[rsp]
	mov	ecx, DWORD PTR tLeft$[rsp]
	add	ecx, eax
	mov	eax, ecx
	mov	rcx, QWORD PTR ptResult$[rsp]
	mov	DWORD PTR [rcx], eax
; Line 105
	xor	eax, eax
$LN1@AtlAdd:
; Line 106
	add	rsp, 40					; 00000028H
	ret	0
??$AtlAdd@H@ATL@@YAJPEAHHH@Z ENDP			; ATL::AtlAdd<int>
_TEXT	ENDS
; Function compile flags: /Odtp
;	COMDAT ??$AtlMultiply@_K@ATL@@YAJPEA_K_K1@Z
_TEXT	SEGMENT
ptResult$ = 48
tLeft$ = 56
tRight$ = 64
??$AtlMultiply@_K@ATL@@YAJPEA_K_K1@Z PROC		; ATL::AtlMultiply<unsigned __int64>, COMDAT
; File d:\visual studio\vc\atlmfc\include\atlalloc.h
; Line 114
$LN5:
	mov	QWORD PTR [rsp+24], r8
	mov	QWORD PTR [rsp+16], rdx
	mov	QWORD PTR [rsp+8], rcx
	sub	rsp, 40					; 00000028H
; Line 116
	cmp	QWORD PTR tLeft$[rsp], 0
	jne	SHORT $LN2@AtlMultipl
; Line 118
	mov	rax, QWORD PTR ptResult$[rsp]
	mov	QWORD PTR [rax], 0
; Line 119
	xor	eax, eax
	jmp	SHORT $LN1@AtlMultipl
$LN2@AtlMultipl:
; Line 121
	xor	edx, edx
	mov	rax, -1
	div	QWORD PTR tLeft$[rsp]
	cmp	rax, QWORD PTR tRight$[rsp]
	jae	SHORT $LN3@AtlMultipl
; Line 123
	mov	ecx, 534				; 00000216H
	call	HRESULT_FROM_WIN32
	jmp	SHORT $LN1@AtlMultipl
$LN3@AtlMultipl:
; Line 125
	mov	rax, QWORD PTR tLeft$[rsp]
	imul	rax, QWORD PTR tRight$[rsp]
	mov	rcx, QWORD PTR ptResult$[rsp]
	mov	QWORD PTR [rcx], rax
; Line 126
	xor	eax, eax
$LN1@AtlMultipl:
; Line 127
	add	rsp, 40					; 00000028H
	ret	0
??$AtlMultiply@_K@ATL@@YAJPEA_K_K1@Z ENDP		; ATL::AtlMultiply<unsigned __int64>
_TEXT	ENDS
; Function compile flags: /Odtp
;	COMDAT ??_GCWin32Heap@ATL@@UEAAPEAXI@Z
_TEXT	SEGMENT
this$ = 48
__flags$ = 56
??_GCWin32Heap@ATL@@UEAAPEAXI@Z PROC			; ATL::CWin32Heap::`scalar deleting destructor', COMDAT
$LN4:
	mov	DWORD PTR [rsp+16], edx
	mov	QWORD PTR [rsp+8], rcx
	sub	rsp, 40					; 00000028H
	mov	rcx, QWORD PTR this$[rsp]
	call	??1CWin32Heap@ATL@@UEAA@XZ		; ATL::CWin32Heap::~CWin32Heap
	mov	eax, DWORD PTR __flags$[rsp]
	and	eax, 1
	test	eax, eax
	je	SHORT $LN2@scalar
	mov	edx, 24
	mov	rcx, QWORD PTR this$[rsp]
	call	??3@YAXPEAX_K@Z				; operator delete
$LN2@scalar:
	mov	rax, QWORD PTR this$[rsp]
	add	rsp, 40					; 00000028H
	ret	0
??_GCWin32Heap@ATL@@UEAAPEAXI@Z ENDP			; ATL::CWin32Heap::`scalar deleting destructor'
_TEXT	ENDS
; Function compile flags: /Odtp
;	COMDAT ?GetSize@CWin32Heap@ATL@@UEAA_KPEAX@Z
_TEXT	SEGMENT
this$ = 48
p$ = 56
?GetSize@CWin32Heap@ATL@@UEAA_KPEAX@Z PROC		; ATL::CWin32Heap::GetSize, COMDAT
; File d:\visual studio\vc\atlmfc\include\atlmem.h
; Line 175
$LN3:
	mov	QWORD PTR [rsp+16], rdx
	mov	QWORD PTR [rsp+8], rcx
	sub	rsp, 40					; 00000028H
; Line 176
	mov	r8, QWORD PTR p$[rsp]
	xor	edx, edx
	mov	rax, QWORD PTR this$[rsp]
	mov	rcx, QWORD PTR [rax+8]
	call	QWORD PTR __imp_HeapSize
; Line 177
	add	rsp, 40					; 00000028H
	ret	0
?GetSize@CWin32Heap@ATL@@UEAA_KPEAX@Z ENDP		; ATL::CWin32Heap::GetSize
_TEXT	ENDS
; Function compile flags: /Odtp
;	COMDAT ?Reallocate@CWin32Heap@ATL@@UEAAPEAXPEAX_K@Z
_TEXT	SEGMENT
this$ = 48
p$ = 56
nBytes$ = 64
?Reallocate@CWin32Heap@ATL@@UEAAPEAXPEAX_K@Z PROC	; ATL::CWin32Heap::Reallocate, COMDAT
; File d:\visual studio\vc\atlmfc\include\atlmem.h
; Line 160
$LN5:
	mov	QWORD PTR [rsp+24], r8
	mov	QWORD PTR [rsp+16], rdx
	mov	QWORD PTR [rsp+8], rcx
	sub	rsp, 40					; 00000028H
; Line 161
	cmp	QWORD PTR p$[rsp], 0
	jne	SHORT $LN2@Reallocate
; Line 163
	mov	rax, QWORD PTR this$[rsp]
	mov	rax, QWORD PTR [rax]
	mov	rdx, QWORD PTR nBytes$[rsp]
	mov	rcx, QWORD PTR this$[rsp]
	call	QWORD PTR [rax]
	jmp	SHORT $LN1@Reallocate
$LN2@Reallocate:
; Line 166
	cmp	QWORD PTR nBytes$[rsp], 0
	jne	SHORT $LN3@Reallocate
; Line 168
	mov	rax, QWORD PTR this$[rsp]
	mov	rax, QWORD PTR [rax]
	mov	rdx, QWORD PTR p$[rsp]
	mov	rcx, QWORD PTR this$[rsp]
	call	QWORD PTR [rax+8]
; Line 169
	xor	eax, eax
	jmp	SHORT $LN1@Reallocate
$LN3@Reallocate:
; Line 172
	mov	r9, QWORD PTR nBytes$[rsp]
	mov	r8, QWORD PTR p$[rsp]
	xor	edx, edx
	mov	rax, QWORD PTR this$[rsp]
	mov	rcx, QWORD PTR [rax+8]
	call	QWORD PTR __imp_HeapReAlloc
$LN1@Reallocate:
; Line 173
	add	rsp, 40					; 00000028H
	ret	0
?Reallocate@CWin32Heap@ATL@@UEAAPEAXPEAX_K@Z ENDP	; ATL::CWin32Heap::Reallocate
_TEXT	ENDS
; Function compile flags: /Odtp
;	COMDAT ?Free@CWin32Heap@ATL@@UEAAXPEAX@Z
_TEXT	SEGMENT
bSuccess$1 = 48
this$ = 80
p$ = 88
?Free@CWin32Heap@ATL@@UEAAXPEAX@Z PROC			; ATL::CWin32Heap::Free, COMDAT
; File d:\visual studio\vc\atlmfc\include\atlmem.h
; Line 148
$LN5:
	mov	QWORD PTR [rsp+16], rdx
	mov	QWORD PTR [rsp+8], rcx
	sub	rsp, 72					; 00000048H
; Line 149
	cmp	QWORD PTR p$[rsp], 0
	je	SHORT $LN2@Free
; Line 153
	mov	r8, QWORD PTR p$[rsp]
	xor	edx, edx
	mov	rax, QWORD PTR this$[rsp]
	mov	rcx, QWORD PTR [rax+8]
	call	QWORD PTR __imp_HeapFree
	mov	DWORD PTR bSuccess$1[rsp], eax
; Line 154
	cmp	DWORD PTR bSuccess$1[rsp], 0
	jne	SHORT $LN4@Free
	lea	rax, OFFSET FLAT:??_C@_1BC@PMINONJG@?$AAb?$AAS?$AAu?$AAc?$AAc?$AAe?$AAs?$AAs?$AA?$AA@
	mov	QWORD PTR [rsp+40], rax
	lea	rax, OFFSET FLAT:??_C@_17CNPHIMPH@?$AA?$CF?$AAl?$AAs?$AA?$AA@
	mov	QWORD PTR [rsp+32], rax
	xor	r9d, r9d
	mov	r8d, 154				; 0000009aH
	lea	rdx, OFFSET FLAT:??_C@_1FI@EACEKNBC@?$AAD?$AA?3?$AA?2?$AAV?$AAi?$AAs?$AAu?$AAa?$AAl?$AA?5?$AAS?$AAt?$AAu?$AAd?$AAi?$AAo?$AA?2?$AAV?$AAC?$AA?2?$AAa?$AAt?$AAl?$AAm?$AAf?$AAc?$AA?2?$AAi?$AAn?$AAc?$AAl?$AAu@
	mov	ecx, 2
	call	QWORD PTR __imp__CrtDbgReportW
	cmp	eax, 1
	jne	SHORT $LN4@Free
	int	3
	xor	eax, eax
$LN4@Free:
$LN2@Free:
; Line 156
	add	rsp, 72					; 00000048H
	ret	0
?Free@CWin32Heap@ATL@@UEAAXPEAX@Z ENDP			; ATL::CWin32Heap::Free
_TEXT	ENDS
; Function compile flags: /Odtp
;	COMDAT ?Allocate@CWin32Heap@ATL@@UEAAPEAX_K@Z
_TEXT	SEGMENT
this$ = 48
nBytes$ = 56
?Allocate@CWin32Heap@ATL@@UEAAPEAX_K@Z PROC		; ATL::CWin32Heap::Allocate, COMDAT
; File d:\visual studio\vc\atlmfc\include\atlmem.h
; Line 144
$LN3:
	mov	QWORD PTR [rsp+16], rdx
	mov	QWORD PTR [rsp+8], rcx
	sub	rsp, 40					; 00000028H
; Line 145
	mov	r8, QWORD PTR nBytes$[rsp]
	xor	edx, edx
	mov	rax, QWORD PTR this$[rsp]
	mov	rcx, QWORD PTR [rax+8]
	call	QWORD PTR __imp_HeapAlloc
; Line 146
	add	rsp, 40					; 00000028H
	ret	0
?Allocate@CWin32Heap@ATL@@UEAAPEAX_K@Z ENDP		; ATL::CWin32Heap::Allocate
_TEXT	ENDS
; Function compile flags: /Odtp
;	COMDAT ??1CWin32Heap@ATL@@UEAA@XZ
_TEXT	SEGMENT
bSuccess$1 = 48
this$ = 80
??1CWin32Heap@ATL@@UEAA@XZ PROC				; ATL::CWin32Heap::~CWin32Heap, COMDAT
; File d:\visual studio\vc\atlmfc\include\atlmem.h
; Line 109
$LN5:
	mov	QWORD PTR [rsp+8], rcx
	sub	rsp, 72					; 00000048H
	mov	rax, QWORD PTR this$[rsp]
	lea	rcx, OFFSET FLAT:??_7CWin32Heap@ATL@@6B@
	mov	QWORD PTR [rax], rcx
; Line 111
	mov	rax, QWORD PTR this$[rsp]
	movzx	eax, BYTE PTR [rax+16]
	test	eax, eax
	je	SHORT $LN2@CWin32Heap
	mov	rax, QWORD PTR this$[rsp]
	cmp	QWORD PTR [rax+8], 0
	je	SHORT $LN2@CWin32Heap
; Line 115
	mov	rax, QWORD PTR this$[rsp]
	mov	rcx, QWORD PTR [rax+8]
	call	QWORD PTR __imp_HeapDestroy
	mov	DWORD PTR bSuccess$1[rsp], eax
; Line 116
	cmp	DWORD PTR bSuccess$1[rsp], 0
	jne	SHORT $LN4@CWin32Heap
	lea	rax, OFFSET FLAT:??_C@_1BC@PMINONJG@?$AAb?$AAS?$AAu?$AAc?$AAc?$AAe?$AAs?$AAs?$AA?$AA@
	mov	QWORD PTR [rsp+40], rax
	lea	rax, OFFSET FLAT:??_C@_17CNPHIMPH@?$AA?$CF?$AAl?$AAs?$AA?$AA@
	mov	QWORD PTR [rsp+32], rax
	xor	r9d, r9d
	mov	r8d, 116				; 00000074H
	lea	rdx, OFFSET FLAT:??_C@_1FI@EACEKNBC@?$AAD?$AA?3?$AA?2?$AAV?$AAi?$AAs?$AAu?$AAa?$AAl?$AA?5?$AAS?$AAt?$AAu?$AAd?$AAi?$AAo?$AA?2?$AAV?$AAC?$AA?2?$AAa?$AAt?$AAl?$AAm?$AAf?$AAc?$AA?2?$AAi?$AAn?$AAc?$AAl?$AAu@
	mov	ecx, 2
	call	QWORD PTR __imp__CrtDbgReportW
	cmp	eax, 1
	jne	SHORT $LN4@CWin32Heap
	int	3
	xor	eax, eax
$LN4@CWin32Heap:
$LN2@CWin32Heap:
; Line 119
	add	rsp, 72					; 00000048H
	ret	0
??1CWin32Heap@ATL@@UEAA@XZ ENDP				; ATL::CWin32Heap::~CWin32Heap
_TEXT	ENDS
; Function compile flags: /Odtp
;	COMDAT ??0CWin32Heap@ATL@@QEAA@PEAX@Z
_TEXT	SEGMENT
this$ = 64
hHeap$ = 72
??0CWin32Heap@ATL@@QEAA@PEAX@Z PROC			; ATL::CWin32Heap::CWin32Heap, COMDAT
; File d:\visual studio\vc\atlmfc\include\atlmem.h
; Line 89
$LN4:
	mov	QWORD PTR [rsp+16], rdx
	mov	QWORD PTR [rsp+8], rcx
	sub	rsp, 56					; 00000038H
	mov	rax, QWORD PTR this$[rsp]
	lea	rcx, OFFSET FLAT:??_7CWin32Heap@ATL@@6B@
	mov	QWORD PTR [rax], rcx
; Line 87
	mov	rax, QWORD PTR this$[rsp]
	mov	rcx, QWORD PTR hHeap$[rsp]
	mov	QWORD PTR [rax+8], rcx
; Line 88
	mov	rax, QWORD PTR this$[rsp]
	mov	BYTE PTR [rax+16], 0
; Line 90
	cmp	QWORD PTR hHeap$[rsp], 0
	jne	SHORT $LN3@CWin32Heap
	lea	rax, OFFSET FLAT:??_C@_1BG@CLPBKBHG@?$AAh?$AAH?$AAe?$AAa?$AAp?$AA?5?$AA?$CB?$AA?$DN?$AA?5?$AA0?$AA?$AA@
	mov	QWORD PTR [rsp+40], rax
	lea	rax, OFFSET FLAT:??_C@_17CNPHIMPH@?$AA?$CF?$AAl?$AAs?$AA?$AA@
	mov	QWORD PTR [rsp+32], rax
	xor	r9d, r9d
	mov	r8d, 90					; 0000005aH
	lea	rdx, OFFSET FLAT:??_C@_1FI@EACEKNBC@?$AAD?$AA?3?$AA?2?$AAV?$AAi?$AAs?$AAu?$AAa?$AAl?$AA?5?$AAS?$AAt?$AAu?$AAd?$AAi?$AAo?$AA?2?$AAV?$AAC?$AA?2?$AAa?$AAt?$AAl?$AAm?$AAf?$AAc?$AA?2?$AAi?$AAn?$AAc?$AAl?$AAu@
	mov	ecx, 2
	call	QWORD PTR __imp__CrtDbgReportW
	cmp	eax, 1
	jne	SHORT $LN3@CWin32Heap
	int	3
	xor	eax, eax
$LN3@CWin32Heap:
; Line 91
	mov	rax, QWORD PTR this$[rsp]
	add	rsp, 56					; 00000038H
	ret	0
??0CWin32Heap@ATL@@QEAA@PEAX@Z ENDP			; ATL::CWin32Heap::CWin32Heap
_TEXT	ENDS
; Function compile flags: /Odtp
;	COMDAT ??__F_AtlWinModule@ATL@@YAXXZ
text$yd	SEGMENT
??__F_AtlWinModule@ATL@@YAXXZ PROC			; ATL::`dynamic atexit destructor for '_AtlWinModule'', COMDAT
	sub	rsp, 40					; 00000028H
	lea	rcx, OFFSET FLAT:?_AtlWinModule@ATL@@3VCAtlWinModule@1@A ; ATL::_AtlWinModule
	call	??1CAtlWinModule@ATL@@QEAA@XZ		; ATL::CAtlWinModule::~CAtlWinModule
	add	rsp, 40					; 00000028H
	ret	0
??__F_AtlWinModule@ATL@@YAXXZ ENDP			; ATL::`dynamic atexit destructor for '_AtlWinModule''
text$yd	ENDS
; Function compile flags: /Odtp
;	COMDAT ??__E_AtlWinModule@ATL@@YAXXZ
text$di	SEGMENT
??__E_AtlWinModule@ATL@@YAXXZ PROC			; ATL::`dynamic initializer for '_AtlWinModule'', COMDAT
; File d:\visual studio\vc\atlmfc\include\atlbase.h
; Line 2815
	sub	rsp, 40					; 00000028H
	lea	rcx, OFFSET FLAT:?_AtlWinModule@ATL@@3VCAtlWinModule@1@A ; ATL::_AtlWinModule
	call	??0CAtlWinModule@ATL@@QEAA@XZ		; ATL::CAtlWinModule::CAtlWinModule
	lea	rcx, OFFSET FLAT:??__F_AtlWinModule@ATL@@YAXXZ ; ATL::`dynamic atexit destructor for '_AtlWinModule''
	call	atexit
	add	rsp, 40					; 00000028H
	ret	0
??__E_AtlWinModule@ATL@@YAXXZ ENDP			; ATL::`dynamic initializer for '_AtlWinModule''
text$di	ENDS
; Function compile flags: /Odtp
;	COMDAT ?Term@CAtlWinModule@ATL@@QEAAXXZ
_TEXT	SEGMENT
this$ = 48
?Term@CAtlWinModule@ATL@@QEAAXXZ PROC			; ATL::CAtlWinModule::Term, COMDAT
; File d:\visual studio\vc\atlmfc\include\atlbase.h
; Line 2799
$LN3:
	mov	QWORD PTR [rsp+8], rcx
	sub	rsp, 40					; 00000028H
; Line 2800
	lea	rcx, OFFSET FLAT:?_AtlBaseModule@ATL@@3VCAtlBaseModule@1@A ; ATL::_AtlBaseModule
	call	?GetModuleInstance@CAtlBaseModule@ATL@@QEAAPEAUHINSTANCE__@@XZ ; ATL::CAtlBaseModule::GetModuleInstance
	mov	rdx, rax
	mov	rcx, QWORD PTR this$[rsp]
	call	?AtlWinModuleTerm@ATL@@YAJPEAU_ATL_WIN_MODULE70@1@PEAUHINSTANCE__@@@Z ; ATL::AtlWinModuleTerm
; Line 2801
	add	rsp, 40					; 00000028H
	ret	0
?Term@CAtlWinModule@ATL@@QEAAXXZ ENDP			; ATL::CAtlWinModule::Term
_TEXT	ENDS
; Function compile flags: /Odtp
;	COMDAT ??1CAtlWinModule@ATL@@QEAA@XZ
_TEXT	SEGMENT
$T1 = 32
this$ = 64
??1CAtlWinModule@ATL@@QEAA@XZ PROC			; ATL::CAtlWinModule::~CAtlWinModule, COMDAT
; File d:\visual studio\vc\atlmfc\include\atlbase.h
; Line 2794
$LN3:
	mov	QWORD PTR [rsp+8], rcx
	sub	rsp, 56					; 00000038H
	mov	QWORD PTR $T1[rsp], -2
; Line 2795
	mov	rcx, QWORD PTR this$[rsp]
	call	?Term@CAtlWinModule@ATL@@QEAAXXZ	; ATL::CAtlWinModule::Term
	npad	1
; Line 2796
	mov	rcx, QWORD PTR this$[rsp]
	call	??1_ATL_WIN_MODULE70@ATL@@QEAA@XZ
	npad	1
	add	rsp, 56					; 00000038H
	ret	0
??1CAtlWinModule@ATL@@QEAA@XZ ENDP			; ATL::CAtlWinModule::~CAtlWinModule
_TEXT	ENDS
; Function compile flags: /Odtp
;	COMDAT ??0CAtlWinModule@ATL@@QEAA@XZ
_TEXT	SEGMENT
hr$ = 48
this$ = 80
??0CAtlWinModule@ATL@@QEAA@XZ PROC			; ATL::CAtlWinModule::CAtlWinModule, COMDAT
; File d:\visual studio\vc\atlmfc\include\atlbase.h
; Line 2780
$LN6:
	mov	QWORD PTR [rsp+8], rcx
	sub	rsp, 72					; 00000048H
; Line 2781
	mov	rcx, QWORD PTR this$[rsp]
	call	??0_ATL_WIN_MODULE70@ATL@@QEAA@XZ
; Line 2782
	mov	rax, QWORD PTR this$[rsp]
	mov	DWORD PTR [rax], 72			; 00000048H
; Line 2783
	mov	rcx, QWORD PTR this$[rsp]
	call	?AtlWinModuleInit@ATL@@YAJPEAU_ATL_WIN_MODULE70@1@@Z ; ATL::AtlWinModuleInit
	mov	DWORD PTR hr$[rsp], eax
; Line 2784
	cmp	DWORD PTR hr$[rsp], 0
	jge	SHORT $LN2@CAtlWinMod
; Line 2786
	xor	eax, eax
	test	eax, eax
	jne	SHORT $LN4@CAtlWinMod
	lea	rax, OFFSET FLAT:??_C@_13COJANIEC@?$AA0?$AA?$AA@
	mov	QWORD PTR [rsp+40], rax
	lea	rax, OFFSET FLAT:??_C@_17CNPHIMPH@?$AA?$CF?$AAl?$AAs?$AA?$AA@
	mov	QWORD PTR [rsp+32], rax
	xor	r9d, r9d
	mov	r8d, 2786				; 00000ae2H
	lea	rdx, OFFSET FLAT:??_C@_1FK@OPACDJFG@?$AAD?$AA?3?$AA?2?$AAV?$AAi?$AAs?$AAu?$AAa?$AAl?$AA?5?$AAS?$AAt?$AAu?$AAd?$AAi?$AAo?$AA?2?$AAV?$AAC?$AA?2?$AAa?$AAt?$AAl?$AAm?$AAf?$AAc?$AA?2?$AAi?$AAn?$AAc?$AAl?$AAu@
	mov	ecx, 2
	call	QWORD PTR __imp__CrtDbgReportW
	cmp	eax, 1
	jne	SHORT $LN4@CAtlWinMod
	int	3
	xor	eax, eax
$LN4@CAtlWinMod:
; Line 2787
	mov	BYTE PTR ?m_bInitFailed@CAtlBaseModule@ATL@@2_NA, 1 ; ATL::CAtlBaseModule::m_bInitFailed
; Line 2788
	mov	rax, QWORD PTR this$[rsp]
	mov	DWORD PTR [rax], 0
$LN2@CAtlWinMod:
; Line 2791
	mov	rax, QWORD PTR this$[rsp]
	add	rsp, 72					; 00000048H
	ret	0
??0CAtlWinModule@ATL@@QEAA@XZ ENDP			; ATL::CAtlWinModule::CAtlWinModule
_TEXT	ENDS
; Function compile flags: /Odtp
;	COMDAT ??__F_AtlComModule@ATL@@YAXXZ
text$yd	SEGMENT
??__F_AtlComModule@ATL@@YAXXZ PROC			; ATL::`dynamic atexit destructor for '_AtlComModule'', COMDAT
	sub	rsp, 40					; 00000028H
	lea	rcx, OFFSET FLAT:?_AtlComModule@ATL@@3VCAtlComModule@1@A ; ATL::_AtlComModule
	call	??1CAtlComModule@ATL@@QEAA@XZ		; ATL::CAtlComModule::~CAtlComModule
	add	rsp, 40					; 00000028H
	ret	0
??__F_AtlComModule@ATL@@YAXXZ ENDP			; ATL::`dynamic atexit destructor for '_AtlComModule''
text$yd	ENDS
; Function compile flags: /Odtp
;	COMDAT ??__E_AtlComModule@ATL@@YAXXZ
text$di	SEGMENT
??__E_AtlComModule@ATL@@YAXXZ PROC			; ATL::`dynamic initializer for '_AtlComModule'', COMDAT
; File d:\visual studio\vc\atlmfc\include\atlbase.h
; Line 2559
	sub	rsp, 40					; 00000028H
	lea	rcx, OFFSET FLAT:?_AtlComModule@ATL@@3VCAtlComModule@1@A ; ATL::_AtlComModule
	call	??0CAtlComModule@ATL@@QEAA@XZ		; ATL::CAtlComModule::CAtlComModule
	lea	rcx, OFFSET FLAT:??__F_AtlComModule@ATL@@YAXXZ ; ATL::`dynamic atexit destructor for '_AtlComModule''
	call	atexit
	add	rsp, 40					; 00000028H
	ret	0
??__E_AtlComModule@ATL@@YAXXZ ENDP			; ATL::`dynamic initializer for '_AtlComModule''
text$di	ENDS
; Function compile flags: /Odtp
;	COMDAT ?Term@CAtlComModule@ATL@@QEAAXXZ
_TEXT	SEGMENT
ppEntry$1 = 32
pCache$2 = 40
factory$3 = 48
this$ = 80
?Term@CAtlComModule@ATL@@QEAAXXZ PROC			; ATL::CAtlComModule::Term, COMDAT
; File d:\visual studio\vc\atlmfc\include\atlbase.h
; Line 2456
$LN9:
	mov	QWORD PTR [rsp+8], rcx
	sub	rsp, 72					; 00000048H
; Line 2457
	mov	rax, QWORD PTR this$[rsp]
	cmp	DWORD PTR [rax], 0
	jne	SHORT $LN5@Term
; Line 2458
	jmp	$LN1@Term
$LN5@Term:
; Line 2460
	mov	rax, QWORD PTR this$[rsp]
	mov	rax, QWORD PTR [rax+16]
	mov	QWORD PTR ppEntry$1[rsp], rax
	jmp	SHORT $LN4@Term
$LN2@Term:
	mov	rax, QWORD PTR ppEntry$1[rsp]
	add	rax, 8
	mov	QWORD PTR ppEntry$1[rsp], rax
$LN4@Term:
	mov	rax, QWORD PTR this$[rsp]
	mov	rax, QWORD PTR [rax+24]
	cmp	QWORD PTR ppEntry$1[rsp], rax
	jae	SHORT $LN3@Term
; Line 2462
	mov	rax, QWORD PTR ppEntry$1[rsp]
	cmp	QWORD PTR [rax], 0
	je	SHORT $LN6@Term
; Line 2464
	mov	rax, QWORD PTR ppEntry$1[rsp]
	mov	rax, QWORD PTR [rax]
	mov	rax, QWORD PTR [rax+32]
	mov	QWORD PTR pCache$2[rsp], rax
; Line 2466
	mov	rax, QWORD PTR pCache$2[rsp]
	cmp	QWORD PTR [rax], 0
	je	SHORT $LN7@Term
; Line 2469
	mov	rax, QWORD PTR pCache$2[rsp]
	mov	rcx, QWORD PTR [rax]
	call	QWORD PTR __imp_DecodePointer
	mov	QWORD PTR factory$3[rsp], rax
; Line 2471
	mov	rax, QWORD PTR factory$3[rsp]
	mov	rax, QWORD PTR [rax]
	mov	rcx, QWORD PTR factory$3[rsp]
	call	QWORD PTR [rax+16]
; Line 2472
	mov	rax, QWORD PTR pCache$2[rsp]
	mov	QWORD PTR [rax], 0
$LN7@Term:
$LN6@Term:
; Line 2475
	jmp	SHORT $LN2@Term
$LN3@Term:
; Line 2476
	mov	rax, QWORD PTR this$[rsp]
	add	rax, 32					; 00000020H
	mov	rcx, rax
	call	?Term@CComCriticalSection@ATL@@QEAAJXZ	; ATL::CComCriticalSection::Term
; Line 2480
	mov	rax, QWORD PTR this$[rsp]
	mov	DWORD PTR [rax], 0
$LN1@Term:
; Line 2481
	add	rsp, 72					; 00000048H
	ret	0
?Term@CAtlComModule@ATL@@QEAAXXZ ENDP			; ATL::CAtlComModule::Term
_TEXT	ENDS
; Function compile flags: /Odtp
;	COMDAT ??1CAtlComModule@ATL@@QEAA@XZ
_TEXT	SEGMENT
$T1 = 32
this$ = 64
??1CAtlComModule@ATL@@QEAA@XZ PROC			; ATL::CAtlComModule::~CAtlComModule, COMDAT
; File d:\visual studio\vc\atlmfc\include\atlbase.h
; Line 2450
$LN3:
	mov	QWORD PTR [rsp+8], rcx
	sub	rsp, 56					; 00000038H
	mov	QWORD PTR $T1[rsp], -2
; Line 2451
	mov	rcx, QWORD PTR this$[rsp]
	call	?Term@CAtlComModule@ATL@@QEAAXXZ	; ATL::CAtlComModule::Term
	npad	1
; Line 2452
	mov	rcx, QWORD PTR this$[rsp]
	call	??1_ATL_COM_MODULE70@ATL@@QEAA@XZ
	npad	1
	add	rsp, 56					; 00000038H
	ret	0
??1CAtlComModule@ATL@@QEAA@XZ ENDP			; ATL::CAtlComModule::~CAtlComModule
_TEXT	ENDS
; Function compile flags: /Odtp
;	COMDAT ??0CAtlComModule@ATL@@QEAA@XZ
_TEXT	SEGMENT
tv144 = 48
$T1 = 56
this$ = 96
??0CAtlComModule@ATL@@QEAA@XZ PROC			; ATL::CAtlComModule::CAtlComModule, COMDAT
; File d:\visual studio\vc\atlmfc\include\atlbase.h
; Line 2429
$LN5:
	mov	QWORD PTR [rsp+8], rcx
	sub	rsp, 88					; 00000058H
; Line 2430
	mov	rcx, QWORD PTR this$[rsp]
	call	??0_ATL_COM_MODULE70@ATL@@QEAA@XZ
; Line 2431
	mov	rax, QWORD PTR this$[rsp]
	mov	DWORD PTR [rax], 0
; Line 2433
	mov	rax, QWORD PTR this$[rsp]
	lea	rcx, OFFSET FLAT:__ImageBase
	mov	QWORD PTR [rax+8], rcx
; Line 2435
	lea	rax, OFFSET FLAT:__pobjMapEntryFirst
	add	rax, 8
	mov	rcx, QWORD PTR this$[rsp]
	mov	QWORD PTR [rcx+16], rax
; Line 2436
	mov	rax, QWORD PTR this$[rsp]
	lea	rcx, OFFSET FLAT:__pobjMapEntryLast
	mov	QWORD PTR [rax+24], rcx
; Line 2438
	mov	rax, QWORD PTR this$[rsp]
	add	rax, 32					; 00000020H
	mov	rcx, rax
	call	?Init@CComCriticalSection@ATL@@QEAAJXZ	; ATL::CComCriticalSection::Init
	test	eax, eax
	jge	$LN2@CAtlComMod
; Line 2440
	lea	rcx, OFFSET FLAT:?atlTraceCOM@ATL@@3V?$CTraceCategoryEx@$01$0A@@1@A ; ATL::atlTraceCOM
	call	??B?$CTraceCategoryEx@$01$0A@@ATL@@QEAAIXZ ; ATL::CTraceCategoryEx<2,0>::operator unsigned int
	mov	DWORD PTR tv144[rsp], eax
	mov	r8d, 2440				; 00000988H
	lea	rdx, OFFSET FLAT:??_C@_0CN@DJIBLIGL@D?3?2Visual?5Studio?2VC?2atlmfc?2inclu@
	lea	rcx, QWORD PTR $T1[rsp]
	call	??0CTraceFileAndLineInfo@ATL@@QEAA@PEBDH@Z ; ATL::CTraceFileAndLineInfo::CTraceFileAndLineInfo
	lea	r9, OFFSET FLAT:??_C@_1IA@KEEOONGN@?$AAE?$AAR?$AAR?$AAO?$AAR?$AA?5?$AA?3?$AA?5?$AAU?$AAn?$AAa?$AAb?$AAl?$AAe?$AA?5?$AAt?$AAo?$AA?5?$AAi?$AAn?$AAi?$AAt?$AAi?$AAa?$AAl?$AAi?$AAz?$AAe?$AA?5?$AAc?$AAr?$AAi@
	xor	r8d, r8d
	mov	ecx, DWORD PTR tv144[rsp]
	mov	edx, ecx
	mov	rcx, rax
	call	??RCTraceFileAndLineInfo@ATL@@QEBAXHIPEB_WZZ ; ATL::CTraceFileAndLineInfo::operator()
; Line 2441
	xor	eax, eax
	test	eax, eax
	jne	SHORT $LN4@CAtlComMod
	lea	rax, OFFSET FLAT:??_C@_13COJANIEC@?$AA0?$AA?$AA@
	mov	QWORD PTR [rsp+40], rax
	lea	rax, OFFSET FLAT:??_C@_17CNPHIMPH@?$AA?$CF?$AAl?$AAs?$AA?$AA@
	mov	QWORD PTR [rsp+32], rax
	xor	r9d, r9d
	mov	r8d, 2441				; 00000989H
	lea	rdx, OFFSET FLAT:??_C@_1FK@OPACDJFG@?$AAD?$AA?3?$AA?2?$AAV?$AAi?$AAs?$AAu?$AAa?$AAl?$AA?5?$AAS?$AAt?$AAu?$AAd?$AAi?$AAo?$AA?2?$AAV?$AAC?$AA?2?$AAa?$AAt?$AAl?$AAm?$AAf?$AAc?$AA?2?$AAi?$AAn?$AAc?$AAl?$AAu@
	mov	ecx, 2
	call	QWORD PTR __imp__CrtDbgReportW
	cmp	eax, 1
	jne	SHORT $LN4@CAtlComMod
	int	3
	xor	eax, eax
$LN4@CAtlComMod:
; Line 2442
	mov	BYTE PTR ?m_bInitFailed@CAtlBaseModule@ATL@@2_NA, 1 ; ATL::CAtlBaseModule::m_bInitFailed
; Line 2443
	jmp	SHORT $LN1@CAtlComMod
$LN2@CAtlComMod:
; Line 2446
	mov	rax, QWORD PTR this$[rsp]
	mov	DWORD PTR [rax], 72			; 00000048H
$LN1@CAtlComMod:
; Line 2447
	mov	rax, QWORD PTR this$[rsp]
	add	rsp, 88					; 00000058H
	ret	0
??0CAtlComModule@ATL@@QEAA@XZ ENDP			; ATL::CAtlComModule::CAtlComModule
_TEXT	ENDS
; Function compile flags: /Odtp
;	COMDAT ?AtlWinModuleTerm@ATL@@YAJPEAU_ATL_WIN_MODULE70@1@PEAUHINSTANCE__@@@Z
_TEXT	SEGMENT
i$1 = 32
pWinModule$ = 64
hInst$ = 72
?AtlWinModuleTerm@ATL@@YAJPEAU_ATL_WIN_MODULE70@1@PEAUHINSTANCE__@@@Z PROC ; ATL::AtlWinModuleTerm, COMDAT
; File d:\visual studio\vc\atlmfc\include\atlbase.h
; Line 7649
$LN9:
	mov	QWORD PTR [rsp+16], rdx
	mov	QWORD PTR [rsp+8], rcx
	sub	rsp, 56					; 00000038H
; Line 7650
	cmp	QWORD PTR pWinModule$[rsp], 0
	jne	SHORT $LN5@AtlWinModu
; Line 7651
	mov	eax, -2147024809			; ffffffff80070057H
	jmp	$LN1@AtlWinModu
$LN5@AtlWinModu:
; Line 7652
	mov	rax, QWORD PTR pWinModule$[rsp]
	cmp	DWORD PTR [rax], 0
	jne	SHORT $LN6@AtlWinModu
; Line 7653
	xor	eax, eax
	jmp	$LN1@AtlWinModu
$LN6@AtlWinModu:
; Line 7654
	mov	rax, QWORD PTR pWinModule$[rsp]
	mov	eax, DWORD PTR [rax]
	cmp	rax, 72					; 00000048H
	je	SHORT $LN7@AtlWinModu
; Line 7655
	mov	eax, -2147024809			; ffffffff80070057H
	jmp	$LN1@AtlWinModu
$LN7@AtlWinModu:
; Line 7657
	mov	DWORD PTR i$1[rsp], 0
	jmp	SHORT $LN4@AtlWinModu
$LN2@AtlWinModu:
	mov	eax, DWORD PTR i$1[rsp]
	inc	eax
	mov	DWORD PTR i$1[rsp], eax
$LN4@AtlWinModu:
	mov	rax, QWORD PTR pWinModule$[rsp]
	add	rax, 56					; 00000038H
	mov	rcx, rax
	call	?GetSize@?$CSimpleArray@GV?$CSimpleArrayEqualHelper@G@ATL@@@ATL@@QEBAHXZ ; ATL::CSimpleArray<unsigned short,ATL::CSimpleArrayEqualHelper<unsigned short> >::GetSize
	cmp	DWORD PTR i$1[rsp], eax
	jge	SHORT $LN3@AtlWinModu
; Line 7658
	mov	rax, QWORD PTR pWinModule$[rsp]
	add	rax, 56					; 00000038H
	mov	edx, DWORD PTR i$1[rsp]
	mov	rcx, rax
	call	??A?$CSimpleArray@GV?$CSimpleArrayEqualHelper@G@ATL@@@ATL@@QEAAAEAGH@Z ; ATL::CSimpleArray<unsigned short,ATL::CSimpleArrayEqualHelper<unsigned short> >::operator[]
	movzx	eax, WORD PTR [rax]
	mov	rdx, QWORD PTR hInst$[rsp]
	mov	ecx, eax
	call	QWORD PTR __imp_UnregisterClassW
	jmp	SHORT $LN2@AtlWinModu
$LN3@AtlWinModu:
; Line 7659
	mov	rax, QWORD PTR pWinModule$[rsp]
	add	rax, 56					; 00000038H
	mov	rcx, rax
	call	?RemoveAll@?$CSimpleArray@GV?$CSimpleArrayEqualHelper@G@ATL@@@ATL@@QEAAXXZ ; ATL::CSimpleArray<unsigned short,ATL::CSimpleArrayEqualHelper<unsigned short> >::RemoveAll
; Line 7660
	mov	rax, QWORD PTR pWinModule$[rsp]
	add	rax, 8
	mov	rcx, rax
	call	?Term@CComCriticalSection@ATL@@QEAAJXZ	; ATL::CComCriticalSection::Term
; Line 7661
	mov	rax, QWORD PTR pWinModule$[rsp]
	mov	DWORD PTR [rax], 0
; Line 7662
	xor	eax, eax
$LN1@AtlWinModu:
; Line 7663
	add	rsp, 56					; 00000038H
	ret	0
?AtlWinModuleTerm@ATL@@YAJPEAU_ATL_WIN_MODULE70@1@PEAUHINSTANCE__@@@Z ENDP ; ATL::AtlWinModuleTerm
_TEXT	ENDS
; Function compile flags: /Odtp
;	COMDAT ?AtlWinModuleInit@ATL@@YAJPEAU_ATL_WIN_MODULE70@1@@Z
_TEXT	SEGMENT
hr$ = 48
tv81 = 52
$T1 = 56
pWinModule$ = 96
?AtlWinModuleInit@ATL@@YAJPEAU_ATL_WIN_MODULE70@1@@Z PROC ; ATL::AtlWinModuleInit, COMDAT
; File d:\visual studio\vc\atlmfc\include\atlbase.h
; Line 8393
$LN7:
	mov	QWORD PTR [rsp+8], rcx
	sub	rsp, 88					; 00000058H
; Line 8394
	cmp	QWORD PTR pWinModule$[rsp], 0
	jne	SHORT $LN2@AtlWinModu
; Line 8395
	mov	eax, -2147024809			; ffffffff80070057H
	jmp	$LN1@AtlWinModu
$LN2@AtlWinModu:
; Line 8398
	mov	rax, QWORD PTR pWinModule$[rsp]
	mov	eax, DWORD PTR [rax]
	cmp	rax, 72					; 00000048H
	je	SHORT $LN3@AtlWinModu
; Line 8399
	mov	eax, -2147024809			; ffffffff80070057H
	jmp	$LN1@AtlWinModu
$LN3@AtlWinModu:
; Line 8401
	mov	rax, QWORD PTR pWinModule$[rsp]
	mov	QWORD PTR [rax+48], 0
; Line 8403
	mov	rax, QWORD PTR pWinModule$[rsp]
	add	rax, 8
	mov	rcx, rax
	call	?Init@CComCriticalSection@ATL@@QEAAJXZ	; ATL::CComCriticalSection::Init
	mov	DWORD PTR hr$[rsp], eax
; Line 8404
	cmp	DWORD PTR hr$[rsp], 0
	jge	$LN4@AtlWinModu
; Line 8406
	lea	rcx, OFFSET FLAT:?atlTraceWindowing@ATL@@3V?$CTraceCategoryEx@$0CA@$0A@@1@A ; ATL::atlTraceWindowing
	call	??B?$CTraceCategoryEx@$0CA@$0A@@ATL@@QEAAIXZ ; ATL::CTraceCategoryEx<32,0>::operator unsigned int
	mov	DWORD PTR tv81[rsp], eax
	mov	r8d, 8406				; 000020d6H
	lea	rdx, OFFSET FLAT:??_C@_0CN@DJIBLIGL@D?3?2Visual?5Studio?2VC?2atlmfc?2inclu@
	lea	rcx, QWORD PTR $T1[rsp]
	call	??0CTraceFileAndLineInfo@ATL@@QEAA@PEBDH@Z ; ATL::CTraceFileAndLineInfo::CTraceFileAndLineInfo
	lea	r9, OFFSET FLAT:??_C@_1IG@OPJAFKJH@?$AAE?$AAR?$AAR?$AAO?$AAR?$AA?5?$AA?3?$AA?5?$AAU?$AAn?$AAa?$AAb?$AAl?$AAe?$AA?5?$AAt?$AAo?$AA?5?$AAi?$AAn?$AAi?$AAt?$AAi?$AAa?$AAl?$AAi?$AAz?$AAe?$AA?5?$AAc?$AAr?$AAi@
	xor	r8d, r8d
	mov	ecx, DWORD PTR tv81[rsp]
	mov	edx, ecx
	mov	rcx, rax
	call	??RCTraceFileAndLineInfo@ATL@@QEBAXHIPEB_WZZ ; ATL::CTraceFileAndLineInfo::operator()
; Line 8407
	xor	eax, eax
	test	eax, eax
	jne	SHORT $LN6@AtlWinModu
	lea	rax, OFFSET FLAT:??_C@_13COJANIEC@?$AA0?$AA?$AA@
	mov	QWORD PTR [rsp+40], rax
	lea	rax, OFFSET FLAT:??_C@_17CNPHIMPH@?$AA?$CF?$AAl?$AAs?$AA?$AA@
	mov	QWORD PTR [rsp+32], rax
	xor	r9d, r9d
	mov	r8d, 8407				; 000020d7H
	lea	rdx, OFFSET FLAT:??_C@_1FK@OPACDJFG@?$AAD?$AA?3?$AA?2?$AAV?$AAi?$AAs?$AAu?$AAa?$AAl?$AA?5?$AAS?$AAt?$AAu?$AAd?$AAi?$AAo?$AA?2?$AAV?$AAC?$AA?2?$AAa?$AAt?$AAl?$AAm?$AAf?$AAc?$AA?2?$AAi?$AAn?$AAc?$AAl?$AAu@
	mov	ecx, 2
	call	QWORD PTR __imp__CrtDbgReportW
	cmp	eax, 1
	jne	SHORT $LN6@AtlWinModu
	int	3
	xor	eax, eax
$LN6@AtlWinModu:
$LN4@AtlWinModu:
; Line 8409
	mov	eax, DWORD PTR hr$[rsp]
$LN1@AtlWinModu:
; Line 8410
	add	rsp, 88					; 00000058H
	ret	0
?AtlWinModuleInit@ATL@@YAJPEAU_ATL_WIN_MODULE70@1@@Z ENDP ; ATL::AtlWinModuleInit
_TEXT	ENDS
; Function compile flags: /Odtp
;	COMDAT ??1_ATL_WIN_MODULE70@ATL@@QEAA@XZ
_TEXT	SEGMENT
this$ = 48
??1_ATL_WIN_MODULE70@ATL@@QEAA@XZ PROC			; ATL::_ATL_WIN_MODULE70::~_ATL_WIN_MODULE70, COMDAT
$LN3:
	mov	QWORD PTR [rsp+8], rcx
	sub	rsp, 40					; 00000028H
	mov	rax, QWORD PTR this$[rsp]
	add	rax, 56					; 00000038H
	mov	rcx, rax
	call	??1?$CSimpleArray@GV?$CSimpleArrayEqualHelper@G@ATL@@@ATL@@QEAA@XZ ; ATL::CSimpleArray<unsigned short,ATL::CSimpleArrayEqualHelper<unsigned short> >::~CSimpleArray<unsigned short,ATL::CSimpleArrayEqualHelper<unsigned short> >
	mov	rax, QWORD PTR this$[rsp]
	add	rax, 8
	mov	rcx, rax
	call	??1CComCriticalSection@ATL@@QEAA@XZ	; ATL::CComCriticalSection::~CComCriticalSection
	add	rsp, 40					; 00000028H
	ret	0
??1_ATL_WIN_MODULE70@ATL@@QEAA@XZ ENDP			; ATL::_ATL_WIN_MODULE70::~_ATL_WIN_MODULE70
_TEXT	ENDS
; Function compile flags: /Odtp
;	COMDAT ??0_ATL_WIN_MODULE70@ATL@@QEAA@XZ
_TEXT	SEGMENT
$T1 = 32
this$ = 64
??0_ATL_WIN_MODULE70@ATL@@QEAA@XZ PROC			; ATL::_ATL_WIN_MODULE70::_ATL_WIN_MODULE70, COMDAT
$LN5:
	mov	QWORD PTR [rsp+8], rcx
	sub	rsp, 56					; 00000038H
	mov	QWORD PTR $T1[rsp], -2
	mov	rax, QWORD PTR this$[rsp]
	add	rax, 8
	mov	rcx, rax
	call	??0CComCriticalSection@ATL@@QEAA@XZ	; ATL::CComCriticalSection::CComCriticalSection
	npad	1
	mov	rax, QWORD PTR this$[rsp]
	add	rax, 56					; 00000038H
	mov	rcx, rax
	call	??0?$CSimpleArray@GV?$CSimpleArrayEqualHelper@G@ATL@@@ATL@@QEAA@XZ ; ATL::CSimpleArray<unsigned short,ATL::CSimpleArrayEqualHelper<unsigned short> >::CSimpleArray<unsigned short,ATL::CSimpleArrayEqualHelper<unsigned short> >
	npad	1
	mov	rax, QWORD PTR this$[rsp]
	add	rsp, 56					; 00000038H
	ret	0
??0_ATL_WIN_MODULE70@ATL@@QEAA@XZ ENDP			; ATL::_ATL_WIN_MODULE70::_ATL_WIN_MODULE70
_TEXT	ENDS
;	COMDAT text$x
text$x	SEGMENT
$T1 = 32
this$ = 64
?dtor$0@?0???0_ATL_WIN_MODULE70@ATL@@QEAA@XZ@4HA PROC	; `ATL::_ATL_WIN_MODULE70::_ATL_WIN_MODULE70'::`1'::dtor$0
	push	rbp
	sub	rsp, 32					; 00000020H
	mov	rbp, rdx
	mov	rcx, QWORD PTR this$[rbp]
	add	rcx, 8
	call	??1CComCriticalSection@ATL@@QEAA@XZ	; ATL::CComCriticalSection::~CComCriticalSection
	add	rsp, 32					; 00000020H
	pop	rbp
	ret	0
?dtor$0@?0???0_ATL_WIN_MODULE70@ATL@@QEAA@XZ@4HA ENDP	; `ATL::_ATL_WIN_MODULE70::_ATL_WIN_MODULE70'::`1'::dtor$0
text$x	ENDS
; Function compile flags: /Odtp
;	COMDAT text$x
text$x	SEGMENT
$T1 = 32
this$ = 64
?dtor$0@?0???0_ATL_WIN_MODULE70@ATL@@QEAA@XZ@4HA PROC	; `ATL::_ATL_WIN_MODULE70::_ATL_WIN_MODULE70'::`1'::dtor$0
	push	rbp
	sub	rsp, 32					; 00000020H
	mov	rbp, rdx
	mov	rcx, QWORD PTR this$[rbp]
	add	rcx, 8
	call	??1CComCriticalSection@ATL@@QEAA@XZ	; ATL::CComCriticalSection::~CComCriticalSection
	add	rsp, 32					; 00000020H
	pop	rbp
	ret	0
?dtor$0@?0???0_ATL_WIN_MODULE70@ATL@@QEAA@XZ@4HA ENDP	; `ATL::_ATL_WIN_MODULE70::_ATL_WIN_MODULE70'::`1'::dtor$0
text$x	ENDS
; Function compile flags: /Odtp
;	COMDAT ??A?$CSimpleArray@GV?$CSimpleArrayEqualHelper@G@ATL@@@ATL@@QEAAAEAGH@Z
_TEXT	SEGMENT
this$ = 64
nIndex$ = 72
??A?$CSimpleArray@GV?$CSimpleArrayEqualHelper@G@ATL@@@ATL@@QEAAAEAGH@Z PROC ; ATL::CSimpleArray<unsigned short,ATL::CSimpleArrayEqualHelper<unsigned short> >::operator[], COMDAT
; File d:\visual studio\vc\atlmfc\include\atlsimpcoll.h
; Line 236
$LN7:
	mov	DWORD PTR [rsp+16], edx
	mov	QWORD PTR [rsp+8], rcx
	sub	rsp, 56					; 00000038H
; Line 237
	cmp	DWORD PTR nIndex$[rsp], 0
	jl	SHORT $LN5@operator
	mov	rax, QWORD PTR this$[rsp]
	mov	eax, DWORD PTR [rax+8]
	cmp	DWORD PTR nIndex$[rsp], eax
	jl	SHORT $LN6@operator
$LN5@operator:
	lea	rax, OFFSET FLAT:??_C@_1EA@JHMKKLFC@?$AAn?$AAI?$AAn?$AAd?$AAe?$AAx?$AA?5?$AA?$DO?$AA?$DN?$AA?5?$AA0?$AA?5?$AA?$CG?$AA?$CG?$AA?5?$AAn?$AAI?$AAn?$AAd?$AAe?$AAx?$AA?5?$AA?$DM?$AA?5?$AAm?$AA_?$AAn?$AAS?$AAi?$AAz?$AAe?$AA?$AA@
	mov	QWORD PTR [rsp+40], rax
	lea	rax, OFFSET FLAT:??_C@_17CNPHIMPH@?$AA?$CF?$AAl?$AAs?$AA?$AA@
	mov	QWORD PTR [rsp+32], rax
	xor	r9d, r9d
	mov	r8d, 237				; 000000edH
	lea	rdx, OFFSET FLAT:??_C@_1GC@MMHKDKGK@?$AAD?$AA?3?$AA?2?$AAV?$AAi?$AAs?$AAu?$AAa?$AAl?$AA?5?$AAS?$AAt?$AAu?$AAd?$AAi?$AAo?$AA?2?$AAV?$AAC?$AA?2?$AAa?$AAt?$AAl?$AAm?$AAf?$AAc?$AA?2?$AAi?$AAn?$AAc?$AAl?$AAu@
	mov	ecx, 2
	call	QWORD PTR __imp__CrtDbgReportW
	cmp	eax, 1
	jne	SHORT $LN6@operator
	int	3
	xor	eax, eax
$LN6@operator:
; Line 238
	cmp	DWORD PTR nIndex$[rsp], 0
	jl	SHORT $LN3@operator
	mov	rax, QWORD PTR this$[rsp]
	mov	eax, DWORD PTR [rax+8]
	cmp	DWORD PTR nIndex$[rsp], eax
	jl	SHORT $LN2@operator
$LN3@operator:
; Line 240
	mov	edx, 1
	mov	ecx, -1073741684			; c000008cH
	call	?_AtlRaiseException@ATL@@YAXKK@Z	; ATL::_AtlRaiseException
$LN2@operator:
; Line 242
	movsxd	rax, DWORD PTR nIndex$[rsp]
	mov	rcx, QWORD PTR this$[rsp]
	mov	rcx, QWORD PTR [rcx]
	lea	rax, QWORD PTR [rcx+rax*2]
$LN4@operator:
; Line 243
	add	rsp, 56					; 00000038H
	ret	0
??A?$CSimpleArray@GV?$CSimpleArrayEqualHelper@G@ATL@@@ATL@@QEAAAEAGH@Z ENDP ; ATL::CSimpleArray<unsigned short,ATL::CSimpleArrayEqualHelper<unsigned short> >::operator[]
_TEXT	ENDS
; Function compile flags: /Odtp
;	COMDAT ?RemoveAll@?$CSimpleArray@GV?$CSimpleArrayEqualHelper@G@ATL@@@ATL@@QEAAXXZ
_TEXT	SEGMENT
i$1 = 32
this$ = 64
?RemoveAll@?$CSimpleArray@GV?$CSimpleArrayEqualHelper@G@ATL@@@ATL@@QEAAXXZ PROC ; ATL::CSimpleArray<unsigned short,ATL::CSimpleArrayEqualHelper<unsigned short> >::RemoveAll, COMDAT
; File d:\visual studio\vc\atlmfc\include\atlsimpcoll.h
; Line 215
$LN7:
	mov	QWORD PTR [rsp+8], rcx
	sub	rsp, 56					; 00000038H
; Line 216
	mov	rax, QWORD PTR this$[rsp]
	cmp	QWORD PTR [rax], 0
	je	SHORT $LN5@RemoveAll
; Line 218
	mov	DWORD PTR i$1[rsp], 0
	jmp	SHORT $LN4@RemoveAll
$LN2@RemoveAll:
	mov	eax, DWORD PTR i$1[rsp]
	inc	eax
	mov	DWORD PTR i$1[rsp], eax
$LN4@RemoveAll:
	mov	rax, QWORD PTR this$[rsp]
	mov	eax, DWORD PTR [rax+8]
	cmp	DWORD PTR i$1[rsp], eax
	jge	SHORT $LN3@RemoveAll
; Line 219
	jmp	SHORT $LN2@RemoveAll
$LN3@RemoveAll:
; Line 220
	mov	rax, QWORD PTR this$[rsp]
	mov	rcx, QWORD PTR [rax]
	call	QWORD PTR __imp_free
; Line 221
	mov	rax, QWORD PTR this$[rsp]
	mov	QWORD PTR [rax], 0
$LN5@RemoveAll:
; Line 223
	mov	rax, QWORD PTR this$[rsp]
	mov	DWORD PTR [rax+8], 0
; Line 224
	mov	rax, QWORD PTR this$[rsp]
	mov	DWORD PTR [rax+12], 0
; Line 225
	add	rsp, 56					; 00000038H
	ret	0
?RemoveAll@?$CSimpleArray@GV?$CSimpleArrayEqualHelper@G@ATL@@@ATL@@QEAAXXZ ENDP ; ATL::CSimpleArray<unsigned short,ATL::CSimpleArrayEqualHelper<unsigned short> >::RemoveAll
_TEXT	ENDS
; Function compile flags: /Odtp
;	COMDAT ?GetSize@?$CSimpleArray@GV?$CSimpleArrayEqualHelper@G@ATL@@@ATL@@QEBAHXZ
_TEXT	SEGMENT
this$ = 8
?GetSize@?$CSimpleArray@GV?$CSimpleArrayEqualHelper@G@ATL@@@ATL@@QEBAHXZ PROC ; ATL::CSimpleArray<unsigned short,ATL::CSimpleArrayEqualHelper<unsigned short> >::GetSize, COMDAT
; File d:\visual studio\vc\atlmfc\include\atlsimpcoll.h
; Line 160
	mov	QWORD PTR [rsp+8], rcx
; Line 161
	mov	rax, QWORD PTR this$[rsp]
	mov	eax, DWORD PTR [rax+8]
; Line 162
	ret	0
?GetSize@?$CSimpleArray@GV?$CSimpleArrayEqualHelper@G@ATL@@@ATL@@QEBAHXZ ENDP ; ATL::CSimpleArray<unsigned short,ATL::CSimpleArrayEqualHelper<unsigned short> >::GetSize
_TEXT	ENDS
; Function compile flags: /Odtp
;	COMDAT ??1?$CSimpleArray@GV?$CSimpleArrayEqualHelper@G@ATL@@@ATL@@QEAA@XZ
_TEXT	SEGMENT
$T1 = 32
this$ = 64
??1?$CSimpleArray@GV?$CSimpleArrayEqualHelper@G@ATL@@@ATL@@QEAA@XZ PROC ; ATL::CSimpleArray<unsigned short,ATL::CSimpleArrayEqualHelper<unsigned short> >::~CSimpleArray<unsigned short,ATL::CSimpleArrayEqualHelper<unsigned short> >, COMDAT
; File d:\visual studio\vc\atlmfc\include\atlsimpcoll.h
; Line 310
$LN3:
	mov	QWORD PTR [rsp+8], rcx
	sub	rsp, 56					; 00000038H
	mov	QWORD PTR $T1[rsp], -2
; Line 311
	mov	rcx, QWORD PTR this$[rsp]
	call	?RemoveAll@?$CSimpleArray@GV?$CSimpleArrayEqualHelper@G@ATL@@@ATL@@QEAAXXZ ; ATL::CSimpleArray<unsigned short,ATL::CSimpleArrayEqualHelper<unsigned short> >::RemoveAll
	npad	1
; Line 312
	add	rsp, 56					; 00000038H
	ret	0
??1?$CSimpleArray@GV?$CSimpleArrayEqualHelper@G@ATL@@@ATL@@QEAA@XZ ENDP ; ATL::CSimpleArray<unsigned short,ATL::CSimpleArrayEqualHelper<unsigned short> >::~CSimpleArray<unsigned short,ATL::CSimpleArrayEqualHelper<unsigned short> >
_TEXT	ENDS
; Function compile flags: /Odtp
;	COMDAT ??0?$CSimpleArray@GV?$CSimpleArrayEqualHelper@G@ATL@@@ATL@@QEAA@XZ
_TEXT	SEGMENT
this$ = 8
??0?$CSimpleArray@GV?$CSimpleArrayEqualHelper@G@ATL@@@ATL@@QEAA@XZ PROC ; ATL::CSimpleArray<unsigned short,ATL::CSimpleArrayEqualHelper<unsigned short> >::CSimpleArray<unsigned short,ATL::CSimpleArrayEqualHelper<unsigned short> >, COMDAT
; File d:\visual studio\vc\atlmfc\include\atlsimpcoll.h
; Line 120
	mov	QWORD PTR [rsp+8], rcx
; Line 119
	mov	rax, QWORD PTR this$[rsp]
	mov	QWORD PTR [rax], 0
	mov	rax, QWORD PTR this$[rsp]
	mov	DWORD PTR [rax+8], 0
	mov	rax, QWORD PTR this$[rsp]
	mov	DWORD PTR [rax+12], 0
; Line 121
	mov	rax, QWORD PTR this$[rsp]
	ret	0
??0?$CSimpleArray@GV?$CSimpleArrayEqualHelper@G@ATL@@@ATL@@QEAA@XZ ENDP ; ATL::CSimpleArray<unsigned short,ATL::CSimpleArrayEqualHelper<unsigned short> >::CSimpleArray<unsigned short,ATL::CSimpleArrayEqualHelper<unsigned short> >
_TEXT	ENDS
; Function compile flags: /Odtp
;	COMDAT ??1_ATL_COM_MODULE70@ATL@@QEAA@XZ
_TEXT	SEGMENT
this$ = 48
??1_ATL_COM_MODULE70@ATL@@QEAA@XZ PROC			; ATL::_ATL_COM_MODULE70::~_ATL_COM_MODULE70, COMDAT
$LN3:
	mov	QWORD PTR [rsp+8], rcx
	sub	rsp, 40					; 00000028H
	mov	rax, QWORD PTR this$[rsp]
	add	rax, 32					; 00000020H
	mov	rcx, rax
	call	??1CComCriticalSection@ATL@@QEAA@XZ	; ATL::CComCriticalSection::~CComCriticalSection
	add	rsp, 40					; 00000028H
	ret	0
??1_ATL_COM_MODULE70@ATL@@QEAA@XZ ENDP			; ATL::_ATL_COM_MODULE70::~_ATL_COM_MODULE70
_TEXT	ENDS
; Function compile flags: /Odtp
;	COMDAT ??0_ATL_COM_MODULE70@ATL@@QEAA@XZ
_TEXT	SEGMENT
this$ = 48
??0_ATL_COM_MODULE70@ATL@@QEAA@XZ PROC			; ATL::_ATL_COM_MODULE70::_ATL_COM_MODULE70, COMDAT
$LN3:
	mov	QWORD PTR [rsp+8], rcx
	sub	rsp, 40					; 00000028H
	mov	rax, QWORD PTR this$[rsp]
	add	rax, 32					; 00000020H
	mov	rcx, rax
	call	??0CComCriticalSection@ATL@@QEAA@XZ	; ATL::CComCriticalSection::CComCriticalSection
	mov	rax, QWORD PTR this$[rsp]
	add	rsp, 40					; 00000028H
	ret	0
??0_ATL_COM_MODULE70@ATL@@QEAA@XZ ENDP			; ATL::_ATL_COM_MODULE70::_ATL_COM_MODULE70
_TEXT	ENDS
; Function compile flags: /Odtp
;	COMDAT ?GetModuleInstance@CAtlBaseModule@ATL@@QEAAPEAUHINSTANCE__@@XZ
_TEXT	SEGMENT
this$ = 8
?GetModuleInstance@CAtlBaseModule@ATL@@QEAAPEAUHINSTANCE__@@XZ PROC ; ATL::CAtlBaseModule::GetModuleInstance, COMDAT
; File d:\visual studio\vc\atlmfc\include\atlcore.h
; Line 274
	mov	QWORD PTR [rsp+8], rcx
; Line 275
	mov	rax, QWORD PTR this$[rsp]
	mov	rax, QWORD PTR [rax+8]
; Line 276
	ret	0
?GetModuleInstance@CAtlBaseModule@ATL@@QEAAPEAUHINSTANCE__@@XZ ENDP ; ATL::CAtlBaseModule::GetModuleInstance
_TEXT	ENDS
; Function compile flags: /Odtp
;	COMDAT ?Term@CComCriticalSection@ATL@@QEAAJXZ
_TEXT	SEGMENT
this$ = 48
?Term@CComCriticalSection@ATL@@QEAAJXZ PROC		; ATL::CComCriticalSection::Term, COMDAT
; File d:\visual studio\vc\atlmfc\include\atlcore.h
; Line 139
$LN3:
	mov	QWORD PTR [rsp+8], rcx
	sub	rsp, 40					; 00000028H
; Line 140
	mov	rax, QWORD PTR this$[rsp]
	mov	rcx, rax
	call	QWORD PTR __imp_DeleteCriticalSection
; Line 141
	xor	eax, eax
; Line 142
	add	rsp, 40					; 00000028H
	ret	0
?Term@CComCriticalSection@ATL@@QEAAJXZ ENDP		; ATL::CComCriticalSection::Term
_TEXT	ENDS
; Function compile flags: /Odtp
;	COMDAT ?Init@CComCriticalSection@ATL@@QEAAJXZ
_TEXT	SEGMENT
hRes$ = 32
this$ = 64
?Init@CComCriticalSection@ATL@@QEAAJXZ PROC		; ATL::CComCriticalSection::Init, COMDAT
; File d:\visual studio\vc\atlmfc\include\atlcore.h
; Line 128
$LN4:
	mov	QWORD PTR [rsp+8], rcx
	sub	rsp, 56					; 00000038H
; Line 129
	mov	DWORD PTR hRes$[rsp], 0
; Line 130
	mov	rax, QWORD PTR this$[rsp]
	xor	r8d, r8d
	xor	edx, edx
	mov	rcx, rax
	call	?_AtlInitializeCriticalSectionEx@ATL@@YAHPEAU_RTL_CRITICAL_SECTION@@KK@Z ; ATL::_AtlInitializeCriticalSectionEx
	test	eax, eax
	jne	SHORT $LN2@Init
; Line 132
	call	QWORD PTR __imp_GetLastError
	mov	ecx, eax
	call	HRESULT_FROM_WIN32
	mov	DWORD PTR hRes$[rsp], eax
$LN2@Init:
; Line 135
	mov	eax, DWORD PTR hRes$[rsp]
; Line 136
	add	rsp, 56					; 00000038H
	ret	0
?Init@CComCriticalSection@ATL@@QEAAJXZ ENDP		; ATL::CComCriticalSection::Init
_TEXT	ENDS
; Function compile flags: /Odtp
;	COMDAT ??1CComCriticalSection@ATL@@QEAA@XZ
_TEXT	SEGMENT
this$ = 8
??1CComCriticalSection@ATL@@QEAA@XZ PROC		; ATL::CComCriticalSection::~CComCriticalSection, COMDAT
; File d:\visual studio\vc\atlmfc\include\atlcore.h
; Line 114
	mov	QWORD PTR [rsp+8], rcx
; Line 115
	ret	0
??1CComCriticalSection@ATL@@QEAA@XZ ENDP		; ATL::CComCriticalSection::~CComCriticalSection
_TEXT	ENDS
; Function compile flags: /Odtp
;	COMDAT ??0CComCriticalSection@ATL@@QEAA@XZ
_TEXT	SEGMENT
this$ = 48
??0CComCriticalSection@ATL@@QEAA@XZ PROC		; ATL::CComCriticalSection::CComCriticalSection, COMDAT
; File d:\visual studio\vc\atlmfc\include\atlcore.h
; Line 108
$LN3:
	mov	QWORD PTR [rsp+8], rcx
	sub	rsp, 40					; 00000028H
; Line 110
	mov	rax, QWORD PTR this$[rsp]
	mov	r8d, 40					; 00000028H
	xor	edx, edx
	mov	rcx, rax
	call	memset
; Line 111
	mov	rax, QWORD PTR this$[rsp]
	add	rsp, 40					; 00000028H
	ret	0
??0CComCriticalSection@ATL@@QEAA@XZ ENDP		; ATL::CComCriticalSection::CComCriticalSection
_TEXT	ENDS
; Function compile flags: /Odtp
;	COMDAT ?_AtlInitializeCriticalSectionEx@ATL@@YAHPEAU_RTL_CRITICAL_SECTION@@KK@Z
_TEXT	SEGMENT
lpCriticalSection$ = 48
dwSpinCount$ = 56
Flags$ = 64
?_AtlInitializeCriticalSectionEx@ATL@@YAHPEAU_RTL_CRITICAL_SECTION@@KK@Z PROC ; ATL::_AtlInitializeCriticalSectionEx, COMDAT
; File d:\visual studio\vc\atlmfc\include\atlwinverapi.h
; Line 727
$LN3:
	mov	DWORD PTR [rsp+24], r8d
	mov	DWORD PTR [rsp+16], edx
	mov	QWORD PTR [rsp+8], rcx
	sub	rsp, 40					; 00000028H
; Line 730
	mov	r8d, DWORD PTR Flags$[rsp]
	mov	edx, DWORD PTR dwSpinCount$[rsp]
	mov	rcx, QWORD PTR lpCriticalSection$[rsp]
	call	QWORD PTR __imp_InitializeCriticalSectionEx
; Line 737
	add	rsp, 40					; 00000028H
	ret	0
?_AtlInitializeCriticalSectionEx@ATL@@YAHPEAU_RTL_CRITICAL_SECTION@@KK@Z ENDP ; ATL::_AtlInitializeCriticalSectionEx
_TEXT	ENDS
; Function compile flags: /Odtp
;	COMDAT ?_AtlRaiseException@ATL@@YAXKK@Z
_TEXT	SEGMENT
dwExceptionCode$ = 48
dwExceptionFlags$ = 56
?_AtlRaiseException@ATL@@YAXKK@Z PROC			; ATL::_AtlRaiseException, COMDAT
; File d:\visual studio\vc\atlmfc\include\atlexcept.h
; Line 30
$LN3:
	mov	DWORD PTR [rsp+16], edx
	mov	DWORD PTR [rsp+8], ecx
	sub	rsp, 40					; 00000028H
; Line 31
	xor	r9d, r9d
	xor	r8d, r8d
	mov	edx, DWORD PTR dwExceptionFlags$[rsp]
	mov	ecx, DWORD PTR dwExceptionCode$[rsp]
	call	QWORD PTR __imp_RaiseException
; Line 32
	add	rsp, 40					; 00000028H
	ret	0
?_AtlRaiseException@ATL@@YAXKK@Z ENDP			; ATL::_AtlRaiseException
_TEXT	ENDS
; Function compile flags: /Odtp
;	COMDAT ??RCTraceFileAndLineInfo@ATL@@QEBAXHIPEB_WZZ
_TEXT	SEGMENT
ple$ = 48
ptr$ = 56
$T1 = 64
this$ = 96
dwCategory$ = 104
nLevel$ = 112
pszFmt$ = 120
??RCTraceFileAndLineInfo@ATL@@QEBAXHIPEB_WZZ PROC	; ATL::CTraceFileAndLineInfo::operator(), COMDAT
; File d:\visual studio\vc\atlmfc\include\atltrace.h
; Line 436
$LN4:
	mov	QWORD PTR [rsp+32], r9
	mov	DWORD PTR [rsp+24], r8d
	mov	DWORD PTR [rsp+16], edx
	mov	QWORD PTR [rsp+8], rcx
	sub	rsp, 88					; 00000058H
	mov	QWORD PTR $T1[rsp], -2
; Line 437
	lea	rcx, QWORD PTR ple$[rsp]
	call	??0CPreserveLastError@ATL@@QEAA@XZ	; ATL::CPreserveLastError::CPreserveLastError
	npad	1
; Line 438
	call	??$__vcrt_va_start_verify_argument_type@PEB_W@@YAXXZ ; __vcrt_va_start_verify_argument_type<wchar_t const * __ptr64>
	lea	rax, QWORD PTR pszFmt$[rsp+8]
	mov	QWORD PTR ptr$[rsp], rax
; Line 439
	mov	rax, QWORD PTR ptr$[rsp]
	mov	QWORD PTR [rsp+40], rax
	mov	rax, QWORD PTR pszFmt$[rsp]
	mov	QWORD PTR [rsp+32], rax
	mov	r9d, DWORD PTR nLevel$[rsp]
	mov	r8d, DWORD PTR dwCategory$[rsp]
	mov	rax, QWORD PTR this$[rsp]
	mov	edx, DWORD PTR [rax+8]
	mov	rax, QWORD PTR this$[rsp]
	mov	rcx, QWORD PTR [rax]
	call	?TraceV@CTrace@ATL@@SAXPEBDHIIPEB_WPEAD@Z ; ATL::CTrace::TraceV
; Line 440
	mov	QWORD PTR ptr$[rsp], 0
; Line 441
	lea	rcx, QWORD PTR ple$[rsp]
	call	??1CPreserveLastError@ATL@@QEAA@XZ	; ATL::CPreserveLastError::~CPreserveLastError
	add	rsp, 88					; 00000058H
	ret	0
??RCTraceFileAndLineInfo@ATL@@QEBAXHIPEB_WZZ ENDP	; ATL::CTraceFileAndLineInfo::operator()
_TEXT	ENDS
;	COMDAT text$x
text$x	SEGMENT
ple$ = 48
ptr$ = 56
$T1 = 64
this$ = 96
dwCategory$ = 104
nLevel$ = 112
pszFmt$ = 120
?dtor$0@?0???RCTraceFileAndLineInfo@ATL@@QEBAXHIPEB_WZZ@4HA PROC ; `ATL::CTraceFileAndLineInfo::operator()'::`1'::dtor$0
	push	rbp
	sub	rsp, 32					; 00000020H
	mov	rbp, rdx
	lea	rcx, QWORD PTR ple$[rbp]
	call	??1CPreserveLastError@ATL@@QEAA@XZ	; ATL::CPreserveLastError::~CPreserveLastError
	add	rsp, 32					; 00000020H
	pop	rbp
	ret	0
?dtor$0@?0???RCTraceFileAndLineInfo@ATL@@QEBAXHIPEB_WZZ@4HA ENDP ; `ATL::CTraceFileAndLineInfo::operator()'::`1'::dtor$0
text$x	ENDS
; Function compile flags: /Odtp
;	COMDAT text$x
text$x	SEGMENT
ple$ = 48
ptr$ = 56
$T1 = 64
this$ = 96
dwCategory$ = 104
nLevel$ = 112
pszFmt$ = 120
?dtor$0@?0???RCTraceFileAndLineInfo@ATL@@QEBAXHIPEB_WZZ@4HA PROC ; `ATL::CTraceFileAndLineInfo::operator()'::`1'::dtor$0
	push	rbp
	sub	rsp, 32					; 00000020H
	mov	rbp, rdx
	lea	rcx, QWORD PTR ple$[rbp]
	call	??1CPreserveLastError@ATL@@QEAA@XZ	; ATL::CPreserveLastError::~CPreserveLastError
	add	rsp, 32					; 00000020H
	pop	rbp
	ret	0
?dtor$0@?0???RCTraceFileAndLineInfo@ATL@@QEBAXHIPEB_WZZ@4HA ENDP ; `ATL::CTraceFileAndLineInfo::operator()'::`1'::dtor$0
text$x	ENDS
; Function compile flags: /Odtp
;	COMDAT ??0CTraceFileAndLineInfo@ATL@@QEAA@PEBDH@Z
_TEXT	SEGMENT
this$ = 8
pszFileName$ = 16
nLineNo$ = 24
??0CTraceFileAndLineInfo@ATL@@QEAA@PEBDH@Z PROC		; ATL::CTraceFileAndLineInfo::CTraceFileAndLineInfo, COMDAT
; File d:\visual studio\vc\atlmfc\include\atltrace.h
; Line 411
	mov	DWORD PTR [rsp+24], r8d
	mov	QWORD PTR [rsp+16], rdx
	mov	QWORD PTR [rsp+8], rcx
; Line 410
	mov	rax, QWORD PTR this$[rsp]
	mov	rcx, QWORD PTR pszFileName$[rsp]
	mov	QWORD PTR [rax], rcx
	mov	rax, QWORD PTR this$[rsp]
	mov	ecx, DWORD PTR nLineNo$[rsp]
	mov	DWORD PTR [rax+8], ecx
; Line 412
	mov	rax, QWORD PTR this$[rsp]
	ret	0
??0CTraceFileAndLineInfo@ATL@@QEAA@PEBDH@Z ENDP		; ATL::CTraceFileAndLineInfo::CTraceFileAndLineInfo
_TEXT	ENDS
; Function compile flags: /Odtp
;	COMDAT ??1CPreserveLastError@ATL@@QEAA@XZ
_TEXT	SEGMENT
this$ = 48
??1CPreserveLastError@ATL@@QEAA@XZ PROC			; ATL::CPreserveLastError::~CPreserveLastError, COMDAT
; File d:\visual studio\vc\atlmfc\include\atltrace.h
; Line 396
$LN3:
	mov	QWORD PTR [rsp+8], rcx
	sub	rsp, 40					; 00000028H
; Line 397
	mov	rax, QWORD PTR this$[rsp]
	mov	ecx, DWORD PTR [rax]
	call	QWORD PTR __imp_SetLastError
; Line 398
	add	rsp, 40					; 00000028H
	ret	0
??1CPreserveLastError@ATL@@QEAA@XZ ENDP			; ATL::CPreserveLastError::~CPreserveLastError
_TEXT	ENDS
; Function compile flags: /Odtp
;	COMDAT ??0CPreserveLastError@ATL@@QEAA@XZ
_TEXT	SEGMENT
this$ = 48
??0CPreserveLastError@ATL@@QEAA@XZ PROC			; ATL::CPreserveLastError::CPreserveLastError, COMDAT
; File d:\visual studio\vc\atlmfc\include\atltrace.h
; Line 390
$LN3:
	mov	QWORD PTR [rsp+8], rcx
	sub	rsp, 40					; 00000028H
; Line 392
	call	QWORD PTR __imp_GetLastError
	mov	rcx, QWORD PTR this$[rsp]
	mov	DWORD PTR [rcx], eax
; Line 393
	mov	rax, QWORD PTR this$[rsp]
	add	rsp, 40					; 00000028H
	ret	0
??0CPreserveLastError@ATL@@QEAA@XZ ENDP			; ATL::CPreserveLastError::CPreserveLastError
_TEXT	ENDS
; Function compile flags: /Odtp
;	COMDAT ??1?$CHeapPtr@_WVCCRTAllocator@ATL@@@ATL@@QEAA@XZ
_TEXT	SEGMENT
this$ = 48
??1?$CHeapPtr@_WVCCRTAllocator@ATL@@@ATL@@QEAA@XZ PROC	; ATL::CHeapPtr<wchar_t,ATL::CCRTAllocator>::~CHeapPtr<wchar_t,ATL::CCRTAllocator>, COMDAT
$LN3:
	mov	QWORD PTR [rsp+8], rcx
	sub	rsp, 40					; 00000028H
	mov	rcx, QWORD PTR this$[rsp]
	call	??1?$CHeapPtrBase@_WVCCRTAllocator@ATL@@@ATL@@QEAA@XZ ; ATL::CHeapPtrBase<wchar_t,ATL::CCRTAllocator>::~CHeapPtrBase<wchar_t,ATL::CCRTAllocator>
	add	rsp, 40					; 00000028H
	ret	0
??1?$CHeapPtr@_WVCCRTAllocator@ATL@@@ATL@@QEAA@XZ ENDP	; ATL::CHeapPtr<wchar_t,ATL::CCRTAllocator>::~CHeapPtr<wchar_t,ATL::CCRTAllocator>
_TEXT	ENDS
; Function compile flags: /Odtp
;	COMDAT ?Allocate@?$CHeapPtr@_WVCCRTAllocator@ATL@@@ATL@@QEAA_N_K@Z
_TEXT	SEGMENT
nBytes$ = 32
this$ = 64
nElements$ = 72
?Allocate@?$CHeapPtr@_WVCCRTAllocator@ATL@@@ATL@@QEAA_N_K@Z PROC ; ATL::CHeapPtr<wchar_t,ATL::CCRTAllocator>::Allocate, COMDAT
; File d:\visual studio\vc\atlmfc\include\atlalloc.h
; Line 470
$LN4:
	mov	QWORD PTR [rsp+16], rdx
	mov	QWORD PTR [rsp+8], rcx
	sub	rsp, 56					; 00000038H
; Line 471
	mov	QWORD PTR nBytes$[rsp], 0
; Line 472
	mov	r8d, 2
	mov	rdx, QWORD PTR nElements$[rsp]
	lea	rcx, QWORD PTR nBytes$[rsp]
	call	??$AtlMultiply@_K@ATL@@YAJPEA_K_K1@Z	; ATL::AtlMultiply<unsigned __int64>
	test	eax, eax
	jge	SHORT $LN2@Allocate
; Line 474
	xor	al, al
	jmp	SHORT $LN1@Allocate
$LN2@Allocate:
; Line 476
	mov	rdx, QWORD PTR nBytes$[rsp]
	mov	rcx, QWORD PTR this$[rsp]
	call	?AllocateBytes@?$CHeapPtrBase@_WVCCRTAllocator@ATL@@@ATL@@QEAA_N_K@Z ; ATL::CHeapPtrBase<wchar_t,ATL::CCRTAllocator>::AllocateBytes
$LN1@Allocate:
; Line 477
	add	rsp, 56					; 00000038H
	ret	0
?Allocate@?$CHeapPtr@_WVCCRTAllocator@ATL@@@ATL@@QEAA_N_K@Z ENDP ; ATL::CHeapPtr<wchar_t,ATL::CCRTAllocator>::Allocate
_TEXT	ENDS
; Function compile flags: /Odtp
;	COMDAT ??0?$CHeapPtr@_WVCCRTAllocator@ATL@@@ATL@@QEAA@XZ
_TEXT	SEGMENT
this$ = 48
??0?$CHeapPtr@_WVCCRTAllocator@ATL@@@ATL@@QEAA@XZ PROC	; ATL::CHeapPtr<wchar_t,ATL::CCRTAllocator>::CHeapPtr<wchar_t,ATL::CCRTAllocator>, COMDAT
; File d:\visual studio\vc\atlmfc\include\atlalloc.h
; Line 449
$LN3:
	mov	QWORD PTR [rsp+8], rcx
	sub	rsp, 40					; 00000028H
; Line 450
	mov	rcx, QWORD PTR this$[rsp]
	call	??0?$CHeapPtrBase@_WVCCRTAllocator@ATL@@@ATL@@IEAA@XZ ; ATL::CHeapPtrBase<wchar_t,ATL::CCRTAllocator>::CHeapPtrBase<wchar_t,ATL::CCRTAllocator>
; Line 451
	mov	rax, QWORD PTR this$[rsp]
	add	rsp, 40					; 00000028H
	ret	0
??0?$CHeapPtr@_WVCCRTAllocator@ATL@@@ATL@@QEAA@XZ ENDP	; ATL::CHeapPtr<wchar_t,ATL::CCRTAllocator>::CHeapPtr<wchar_t,ATL::CCRTAllocator>
_TEXT	ENDS
; Function compile flags: /Odtp
;	COMDAT ?Free@?$CHeapPtrBase@_WVCCRTAllocator@ATL@@@ATL@@QEAAXXZ
_TEXT	SEGMENT
this$ = 48
?Free@?$CHeapPtrBase@_WVCCRTAllocator@ATL@@@ATL@@QEAAXXZ PROC ; ATL::CHeapPtrBase<wchar_t,ATL::CCRTAllocator>::Free, COMDAT
; File d:\visual studio\vc\atlmfc\include\atlalloc.h
; Line 422
$LN3:
	mov	QWORD PTR [rsp+8], rcx
	sub	rsp, 40					; 00000028H
; Line 423
	mov	rax, QWORD PTR this$[rsp]
	mov	rcx, QWORD PTR [rax]
	call	?Free@CCRTAllocator@ATL@@SAXPEAX@Z	; ATL::CCRTAllocator::Free
; Line 424
	mov	rax, QWORD PTR this$[rsp]
	mov	QWORD PTR [rax], 0
; Line 425
	add	rsp, 40					; 00000028H
	ret	0
?Free@?$CHeapPtrBase@_WVCCRTAllocator@ATL@@@ATL@@QEAAXXZ ENDP ; ATL::CHeapPtrBase<wchar_t,ATL::CCRTAllocator>::Free
_TEXT	ENDS
; Function compile flags: /Odtp
;	COMDAT ?AllocateBytes@?$CHeapPtrBase@_WVCCRTAllocator@ATL@@@ATL@@QEAA_N_K@Z
_TEXT	SEGMENT
this$ = 64
nBytes$ = 72
?AllocateBytes@?$CHeapPtrBase@_WVCCRTAllocator@ATL@@@ATL@@QEAA_N_K@Z PROC ; ATL::CHeapPtrBase<wchar_t,ATL::CCRTAllocator>::AllocateBytes, COMDAT
; File d:\visual studio\vc\atlmfc\include\atlalloc.h
; Line 396
$LN5:
	mov	QWORD PTR [rsp+16], rdx
	mov	QWORD PTR [rsp+8], rcx
	sub	rsp, 56					; 00000038H
; Line 397
	mov	rax, QWORD PTR this$[rsp]
	cmp	QWORD PTR [rax], 0
	je	SHORT $LN4@AllocateBy
	lea	rax, OFFSET FLAT:??_C@_1BK@NHECDDNK@?$AAm?$AA_?$AAp?$AAD?$AAa?$AAt?$AAa?$AA?5?$AA?$DN?$AA?$DN?$AA?5?$AA0?$AA?$AA@
	mov	QWORD PTR [rsp+40], rax
	lea	rax, OFFSET FLAT:??_C@_17CNPHIMPH@?$AA?$CF?$AAl?$AAs?$AA?$AA@
	mov	QWORD PTR [rsp+32], rax
	xor	r9d, r9d
	mov	r8d, 397				; 0000018dH
	lea	rdx, OFFSET FLAT:??_C@_1FM@NBHDFKJE@?$AAD?$AA?3?$AA?2?$AAV?$AAi?$AAs?$AAu?$AAa?$AAl?$AA?5?$AAS?$AAt?$AAu?$AAd?$AAi?$AAo?$AA?2?$AAV?$AAC?$AA?2?$AAa?$AAt?$AAl?$AAm?$AAf?$AAc?$AA?2?$AAi?$AAn?$AAc?$AAl?$AAu@
	mov	ecx, 2
	call	QWORD PTR __imp__CrtDbgReportW
	cmp	eax, 1
	jne	SHORT $LN4@AllocateBy
	int	3
	xor	eax, eax
$LN4@AllocateBy:
; Line 398
	mov	rcx, QWORD PTR nBytes$[rsp]
	call	?Allocate@CCRTAllocator@ATL@@SAPEAX_K@Z	; ATL::CCRTAllocator::Allocate
	mov	rcx, QWORD PTR this$[rsp]
	mov	QWORD PTR [rcx], rax
; Line 399
	mov	rax, QWORD PTR this$[rsp]
	cmp	QWORD PTR [rax], 0
	jne	SHORT $LN2@AllocateBy
; Line 400
	xor	al, al
	jmp	SHORT $LN1@AllocateBy
$LN2@AllocateBy:
; Line 402
	mov	al, 1
$LN1@AllocateBy:
; Line 403
	add	rsp, 56					; 00000038H
	ret	0
?AllocateBytes@?$CHeapPtrBase@_WVCCRTAllocator@ATL@@@ATL@@QEAA_N_K@Z ENDP ; ATL::CHeapPtrBase<wchar_t,ATL::CCRTAllocator>::AllocateBytes
_TEXT	ENDS
; Function compile flags: /Odtp
;	COMDAT ??B?$CHeapPtrBase@_WVCCRTAllocator@ATL@@@ATL@@QEBAPEA_WXZ
_TEXT	SEGMENT
this$ = 8
??B?$CHeapPtrBase@_WVCCRTAllocator@ATL@@@ATL@@QEBAPEA_WXZ PROC ; ATL::CHeapPtrBase<wchar_t,ATL::CCRTAllocator>::operator wchar_t * __ptr64, COMDAT
; File d:\visual studio\vc\atlmfc\include\atlalloc.h
; Line 378
	mov	QWORD PTR [rsp+8], rcx
; Line 379
	mov	rax, QWORD PTR this$[rsp]
	mov	rax, QWORD PTR [rax]
; Line 380
	ret	0
??B?$CHeapPtrBase@_WVCCRTAllocator@ATL@@@ATL@@QEBAPEA_WXZ ENDP ; ATL::CHeapPtrBase<wchar_t,ATL::CCRTAllocator>::operator wchar_t * __ptr64
_TEXT	ENDS
; Function compile flags: /Odtp
;	COMDAT ??1?$CHeapPtrBase@_WVCCRTAllocator@ATL@@@ATL@@QEAA@XZ
_TEXT	SEGMENT
this$ = 48
??1?$CHeapPtrBase@_WVCCRTAllocator@ATL@@@ATL@@QEAA@XZ PROC ; ATL::CHeapPtrBase<wchar_t,ATL::CCRTAllocator>::~CHeapPtrBase<wchar_t,ATL::CCRTAllocator>, COMDAT
; File d:\visual studio\vc\atlmfc\include\atlalloc.h
; Line 364
$LN3:
	mov	QWORD PTR [rsp+8], rcx
	sub	rsp, 40					; 00000028H
; Line 365
	mov	rcx, QWORD PTR this$[rsp]
	call	?Free@?$CHeapPtrBase@_WVCCRTAllocator@ATL@@@ATL@@QEAAXXZ ; ATL::CHeapPtrBase<wchar_t,ATL::CCRTAllocator>::Free
; Line 366
	add	rsp, 40					; 00000028H
	ret	0
??1?$CHeapPtrBase@_WVCCRTAllocator@ATL@@@ATL@@QEAA@XZ ENDP ; ATL::CHeapPtrBase<wchar_t,ATL::CCRTAllocator>::~CHeapPtrBase<wchar_t,ATL::CCRTAllocator>
_TEXT	ENDS
; Function compile flags: /Odtp
;	COMDAT ??0?$CHeapPtrBase@_WVCCRTAllocator@ATL@@@ATL@@IEAA@XZ
_TEXT	SEGMENT
this$ = 8
??0?$CHeapPtrBase@_WVCCRTAllocator@ATL@@@ATL@@IEAA@XZ PROC ; ATL::CHeapPtrBase<wchar_t,ATL::CCRTAllocator>::CHeapPtrBase<wchar_t,ATL::CCRTAllocator>, COMDAT
; File d:\visual studio\vc\atlmfc\include\atlalloc.h
; Line 351
	mov	QWORD PTR [rsp+8], rcx
; Line 350
	mov	rax, QWORD PTR this$[rsp]
	mov	QWORD PTR [rax], 0
; Line 352
	mov	rax, QWORD PTR this$[rsp]
	ret	0
??0?$CHeapPtrBase@_WVCCRTAllocator@ATL@@@ATL@@IEAA@XZ ENDP ; ATL::CHeapPtrBase<wchar_t,ATL::CCRTAllocator>::CHeapPtrBase<wchar_t,ATL::CCRTAllocator>
_TEXT	ENDS
; Function compile flags: /Odtp
;	COMDAT ?RegisterCategory@CTrace@ATL@@SAXPEB_WI@Z
_TEXT	SEGMENT
pszCategory$ = 64
nCategory$ = 72
?RegisterCategory@CTrace@ATL@@SAXPEB_WI@Z PROC		; ATL::CTrace::RegisterCategory, COMDAT
; File d:\visual studio\vc\atlmfc\include\atltrace.h
; Line 329
$LN6:
	mov	DWORD PTR [rsp+16], edx
	mov	QWORD PTR [rsp+8], rcx
	sub	rsp, 56					; 00000038H
; Line 330
	cmp	QWORD PTR pszCategory$[rsp], 0
	jne	SHORT $LN2@RegisterCa
; Line 332
	jmp	$LN1@RegisterCa
$LN2@RegisterCa:
; Line 335
	cmp	DWORD PTR ?m_nLastCategory@CTrace@ATL@@1IA, 32 ; ATL::CTrace::m_nLastCategory, 00000020H
	jb	SHORT $LN3@RegisterCa
; Line 337
	xor	eax, eax
	test	eax, eax
	jne	SHORT $LN5@RegisterCa
	lea	rax, OFFSET FLAT:??_C@_1EO@EBPPKGOM@?$AAf?$AAa?$AAl?$AAs?$AAe?$AA?5?$AA?$CG?$AA?$CG?$AA?5?$AA?$CC?$AAT?$AAo?$AAo?$AA?5?$AAm?$AAa?$AAn?$AAy?$AA?5?$AAc?$AAa?$AAt?$AAe?$AAg?$AAo?$AAr?$AAi?$AAe?$AAs?$AA?5?$AAd?$AAe@
	mov	QWORD PTR [rsp+40], rax
	lea	rax, OFFSET FLAT:??_C@_17CNPHIMPH@?$AA?$CF?$AAl?$AAs?$AA?$AA@
	mov	QWORD PTR [rsp+32], rax
	xor	r9d, r9d
	mov	r8d, 337				; 00000151H
	lea	rdx, OFFSET FLAT:??_C@_1FM@KCNIDIBH@?$AAD?$AA?3?$AA?2?$AAV?$AAi?$AAs?$AAu?$AAa?$AAl?$AA?5?$AAS?$AAt?$AAu?$AAd?$AAi?$AAo?$AA?2?$AAV?$AAC?$AA?2?$AAa?$AAt?$AAl?$AAm?$AAf?$AAc?$AA?2?$AAi?$AAn?$AAc?$AAl?$AAu@
	mov	ecx, 2
	call	QWORD PTR __imp__CrtDbgReportW
	cmp	eax, 1
	jne	SHORT $LN5@RegisterCa
	int	3
	xor	eax, eax
$LN5@RegisterCa:
; Line 338
	jmp	SHORT $LN1@RegisterCa
$LN3@RegisterCa:
; Line 341
	mov	eax, DWORD PTR ?m_nLastCategory@CTrace@ATL@@1IA ; ATL::CTrace::m_nLastCategory
	imul	rax, rax, 260				; 00000104H
	lea	rcx, OFFSET FLAT:?m_nMap@CTrace@ATL@@1PAUCategoryMap@12@A ; ATL::CTrace::m_nMap
	mov	edx, DWORD PTR nCategory$[rsp]
	mov	DWORD PTR [rcx+rax], edx
; Line 343
	mov	eax, DWORD PTR ?m_nLastCategory@CTrace@ATL@@1IA ; ATL::CTrace::m_nLastCategory
	imul	rax, rax, 260				; 00000104H
	lea	rcx, OFFSET FLAT:?m_nMap@CTrace@ATL@@1PAUCategoryMap@12@A ; ATL::CTrace::m_nMap
	lea	rax, QWORD PTR [rcx+rax+4]
	mov	r8, QWORD PTR pszCategory$[rsp]
	mov	edx, 127				; 0000007fH
	mov	rcx, rax
	call	QWORD PTR __imp_wcscpy_s
; Line 354
	mov	eax, DWORD PTR ?m_nLastCategory@CTrace@ATL@@1IA ; ATL::CTrace::m_nLastCategory
	inc	eax
	mov	DWORD PTR ?m_nLastCategory@CTrace@ATL@@1IA, eax ; ATL::CTrace::m_nLastCategory
$LN1@RegisterCa:
; Line 355
	add	rsp, 56					; 00000038H
	ret	0
?RegisterCategory@CTrace@ATL@@SAXPEB_WI@Z ENDP		; ATL::CTrace::RegisterCategory
_TEXT	ENDS
; Function compile flags: /Odtp
;	COMDAT ?TraceV@CTrace@ATL@@SAXPEBDHIIPEB_WPEAD@Z
_TEXT	SEGMENT
cchNeeded$ = 64
vsnwprintf_result$ = 68
wszBuf$ = 72
tv129 = 80
tv132 = 88
tv139 = 96
$T1 = 104
pszFileName$ = 128
nLine$ = 136
dwCategory$ = 144
nLevel$ = 152
pwszFmt$ = 160
args$ = 168
?TraceV@CTrace@ATL@@SAXPEBDHIIPEB_WPEAD@Z PROC		; ATL::CTrace::TraceV, COMDAT
; File d:\visual studio\vc\atlmfc\include\atltrace.h
; Line 281
$LN7:
	mov	DWORD PTR [rsp+32], r9d
	mov	DWORD PTR [rsp+24], r8d
	mov	DWORD PTR [rsp+16], edx
	mov	QWORD PTR [rsp+8], rcx
	sub	rsp, 120				; 00000078H
	mov	QWORD PTR $T1[rsp], -2
; Line 289
	call	__local_stdio_printf_options
	mov	rax, QWORD PTR [rax]
	or	rax, 2
	or	rax, 4
	mov	rcx, QWORD PTR args$[rsp]
	mov	QWORD PTR [rsp+40], rcx
	mov	QWORD PTR [rsp+32], 0
	mov	r9, QWORD PTR pwszFmt$[rsp]
	xor	r8d, r8d
	xor	edx, edx
	mov	rcx, rax
	call	QWORD PTR __imp___stdio_common_vswprintf
	mov	DWORD PTR cchNeeded$[rsp], eax
; Line 295
	cmp	DWORD PTR cchNeeded$[rsp], 0
	jge	SHORT $LN2@TraceV
; Line 297
	jmp	$LN1@TraceV
$LN2@TraceV:
; Line 300
	lea	rcx, QWORD PTR wszBuf$[rsp]
	call	??0?$CHeapPtr@_WVCCRTAllocator@ATL@@@ATL@@QEAA@XZ ; ATL::CHeapPtr<wchar_t,ATL::CCRTAllocator>::CHeapPtr<wchar_t,ATL::CCRTAllocator>
	npad	1
; Line 301
	mov	eax, DWORD PTR cchNeeded$[rsp]
	inc	eax
	cdqe
	mov	rdx, rax
	lea	rcx, QWORD PTR wszBuf$[rsp]
	call	?Allocate@?$CHeapPtr@_WVCCRTAllocator@ATL@@@ATL@@QEAA_N_K@Z ; ATL::CHeapPtr<wchar_t,ATL::CCRTAllocator>::Allocate
	movzx	eax, al
	test	eax, eax
	jne	SHORT $LN3@TraceV
; Line 303
	lea	rcx, QWORD PTR wszBuf$[rsp]
	call	??1?$CHeapPtr@_WVCCRTAllocator@ATL@@@ATL@@QEAA@XZ
	jmp	$LN1@TraceV
$LN3@TraceV:
; Line 306
	lea	rcx, QWORD PTR wszBuf$[rsp]
	call	??B?$CHeapPtrBase@_WVCCRTAllocator@ATL@@@ATL@@QEBAPEA_WXZ ; ATL::CHeapPtrBase<wchar_t,ATL::CCRTAllocator>::operator wchar_t * __ptr64
	mov	ecx, 2
	imul	rcx, rcx, 0
	xor	edx, edx
	mov	WORD PTR [rax+rcx], dx
; Line 315
	movsxd	rax, DWORD PTR cchNeeded$[rsp]
	mov	QWORD PTR tv129[rsp], rax
	mov	ecx, DWORD PTR cchNeeded$[rsp]
	inc	ecx
	movsxd	rcx, ecx
	mov	QWORD PTR tv132[rsp], rcx
	lea	rcx, QWORD PTR wszBuf$[rsp]
	call	??B?$CHeapPtrBase@_WVCCRTAllocator@ATL@@@ATL@@QEBAPEA_WXZ ; ATL::CHeapPtrBase<wchar_t,ATL::CCRTAllocator>::operator wchar_t * __ptr64
	mov	QWORD PTR tv139[rsp], rax
	call	__local_stdio_printf_options
	mov	rax, QWORD PTR [rax]
	or	rax, 4
	mov	rcx, QWORD PTR args$[rsp]
	mov	QWORD PTR [rsp+48], rcx
	mov	QWORD PTR [rsp+40], 0
	mov	rcx, QWORD PTR pwszFmt$[rsp]
	mov	QWORD PTR [rsp+32], rcx
	mov	rcx, QWORD PTR tv129[rsp]
	mov	r9, rcx
	mov	rcx, QWORD PTR tv132[rsp]
	mov	r8, rcx
	mov	rcx, QWORD PTR tv139[rsp]
	mov	rdx, rcx
	mov	rcx, rax
	call	QWORD PTR __imp___stdio_common_vsnwprintf_s
	mov	DWORD PTR vsnwprintf_result$[rsp], eax
; Line 319
	cmp	DWORD PTR vsnwprintf_result$[rsp], 0
	jge	SHORT $LN4@TraceV
; Line 322
	lea	rcx, QWORD PTR wszBuf$[rsp]
	call	??1?$CHeapPtr@_WVCCRTAllocator@ATL@@@ATL@@QEAA@XZ
	jmp	SHORT $LN1@TraceV
$LN4@TraceV:
; Line 325
	lea	rcx, QWORD PTR wszBuf$[rsp]
	call	??B?$CHeapPtrBase@_WVCCRTAllocator@ATL@@@ATL@@QEBAPEA_WXZ ; ATL::CHeapPtrBase<wchar_t,ATL::CCRTAllocator>::operator wchar_t * __ptr64
	mov	QWORD PTR [rsp+32], rax
	mov	r9d, DWORD PTR nLevel$[rsp]
	mov	r8d, DWORD PTR dwCategory$[rsp]
	mov	edx, DWORD PTR nLine$[rsp]
	mov	rcx, QWORD PTR pszFileName$[rsp]
	call	?TraceV@CTrace@ATL@@CAXPEBDHIIPEB_W@Z	; ATL::CTrace::TraceV
	npad	1
; Line 326
	lea	rcx, QWORD PTR wszBuf$[rsp]
	call	??1?$CHeapPtr@_WVCCRTAllocator@ATL@@@ATL@@QEAA@XZ
$LN1@TraceV:
	add	rsp, 120				; 00000078H
	ret	0
?TraceV@CTrace@ATL@@SAXPEBDHIIPEB_WPEAD@Z ENDP		; ATL::CTrace::TraceV
_TEXT	ENDS
;	COMDAT text$x
text$x	SEGMENT
cchNeeded$ = 64
vsnwprintf_result$ = 68
wszBuf$ = 72
tv129 = 80
tv132 = 88
tv139 = 96
$T1 = 104
pszFileName$ = 128
nLine$ = 136
dwCategory$ = 144
nLevel$ = 152
pwszFmt$ = 160
args$ = 168
?dtor$0@?0??TraceV@CTrace@ATL@@SAXPEBDHIIPEB_WPEAD@Z@4HA PROC ; `ATL::CTrace::TraceV'::`1'::dtor$0
	push	rbp
	sub	rsp, 32					; 00000020H
	mov	rbp, rdx
	lea	rcx, QWORD PTR wszBuf$[rbp]
	call	??1?$CHeapPtr@_WVCCRTAllocator@ATL@@@ATL@@QEAA@XZ
	add	rsp, 32					; 00000020H
	pop	rbp
	ret	0
?dtor$0@?0??TraceV@CTrace@ATL@@SAXPEBDHIIPEB_WPEAD@Z@4HA ENDP ; `ATL::CTrace::TraceV'::`1'::dtor$0
text$x	ENDS
; Function compile flags: /Odtp
;	COMDAT text$x
text$x	SEGMENT
cchNeeded$ = 64
vsnwprintf_result$ = 68
wszBuf$ = 72
tv129 = 80
tv132 = 88
tv139 = 96
$T1 = 104
pszFileName$ = 128
nLine$ = 136
dwCategory$ = 144
nLevel$ = 152
pwszFmt$ = 160
args$ = 168
?dtor$0@?0??TraceV@CTrace@ATL@@SAXPEBDHIIPEB_WPEAD@Z@4HA PROC ; `ATL::CTrace::TraceV'::`1'::dtor$0
	push	rbp
	sub	rsp, 32					; 00000020H
	mov	rbp, rdx
	lea	rcx, QWORD PTR wszBuf$[rbp]
	call	??1?$CHeapPtr@_WVCCRTAllocator@ATL@@@ATL@@QEAA@XZ
	add	rsp, 32					; 00000020H
	pop	rbp
	ret	0
?dtor$0@?0??TraceV@CTrace@ATL@@SAXPEBDHIIPEB_WPEAD@Z@4HA ENDP ; `ATL::CTrace::TraceV'::`1'::dtor$0
text$x	ENDS
; Function compile flags: /Odtp
;	COMDAT ?TraceV@CTrace@ATL@@CAXPEBDHIIPEB_W@Z
_TEXT	SEGMENT
categoryLength$ = 48
wszBuf$ = 56
chCount$ = 64
pwszCategoryName$ = 72
tv145 = 80
fileName$ = 96
wszCategory$ = 624
__$ArrayPad$ = 2672
pszFileName$ = 2704
nLine$ = 2712
dwCategory$ = 2720
nLevel$ = 2728
pwszMessage$ = 2736
?TraceV@CTrace@ATL@@CAXPEBDHIIPEB_W@Z PROC		; ATL::CTrace::TraceV, COMDAT
; File d:\visual studio\vc\atlmfc\include\atltrace.h
; Line 150
$LN13:
	mov	DWORD PTR [rsp+32], r9d
	mov	DWORD PTR [rsp+24], r8d
	mov	DWORD PTR [rsp+16], edx
	mov	QWORD PTR [rsp+8], rcx
	push	rdi
	sub	rsp, 2688				; 00000a80H
	mov	rax, QWORD PTR __security_cookie
	xor	rax, rsp
	mov	QWORD PTR __$ArrayPad$[rsp], rax
; Line 151
	cmp	DWORD PTR ?m_nLevel@CTrace@ATL@@1IA, -1	; ATL::CTrace::m_nLevel, ffffffffH
	je	SHORT $LN3@TraceV
	mov	eax, DWORD PTR nLevel$[rsp]
	cmp	DWORD PTR ?m_nLevel@CTrace@ATL@@1IA, eax ; ATL::CTrace::m_nLevel
	jb	SHORT $LN3@TraceV
	mov	eax, DWORD PTR dwCategory$[rsp]
	mov	ecx, DWORD PTR ?m_nCategory@CTrace@ATL@@1IA ; ATL::CTrace::m_nCategory
	and	ecx, eax
	mov	eax, ecx
	test	eax, eax
	jne	SHORT $LN2@TraceV
$LN3@TraceV:
; Line 153
	jmp	$LN1@TraceV
$LN2@TraceV:
; Line 156
	xor	eax, eax
	mov	WORD PTR wszCategory$[rsp], ax
	lea	rax, QWORD PTR wszCategory$[rsp+2]
	mov	rdi, rax
	xor	eax, eax
	mov	ecx, 2046				; 000007feH
	rep stosb
; Line 157
	mov	DWORD PTR categoryLength$[rsp], 0
; Line 158
	mov	ecx, DWORD PTR dwCategory$[rsp]
	call	?GetCategoryName@CTrace@ATL@@CAPEA_WI@Z	; ATL::CTrace::GetCategoryName
	mov	QWORD PTR pwszCategoryName$[rsp], rax
; Line 159
	cmp	QWORD PTR pwszCategoryName$[rsp], 0
	je	SHORT $LN4@TraceV
; Line 161
	mov	r9, QWORD PTR pwszCategoryName$[rsp]
	lea	r8, OFFSET FLAT:??_C@_1O@LFNDFEBP@?$AA?$CF?$AAl?$AAs?$AA?5?$AA?9?$AA?5?$AA?$AA@
	mov	edx, 1024				; 00000400H
	lea	rcx, QWORD PTR wszCategory$[rsp]
	call	swprintf_s
	mov	DWORD PTR categoryLength$[rsp], eax
	cmp	DWORD PTR categoryLength$[rsp], -1
	jne	SHORT $LN6@TraceV
; Line 163
	jmp	$LN1@TraceV
$LN6@TraceV:
; Line 166
	jmp	SHORT $LN5@TraceV
$LN4@TraceV:
; Line 168
	mov	r9d, DWORD PTR dwCategory$[rsp]
	lea	r8, OFFSET FLAT:??_C@_1M@PGKOAACE@?$AA?$CF?$AAu?$AA?5?$AA?9?$AA?5?$AA?$AA@
	mov	edx, 1024				; 00000400H
	lea	rcx, QWORD PTR wszCategory$[rsp]
	call	swprintf_s
	mov	DWORD PTR categoryLength$[rsp], eax
	cmp	DWORD PTR categoryLength$[rsp], -1
	jne	SHORT $LN5@TraceV
; Line 170
	jmp	$LN1@TraceV
$LN5@TraceV:
; Line 174
	mov	rcx, QWORD PTR pwszMessage$[rsp]
	call	QWORD PTR __imp_wcslen
	mov	ecx, DWORD PTR categoryLength$[rsp]
	lea	eax, DWORD PTR [rax+rcx+1]
	mov	DWORD PTR chCount$[rsp], eax
; Line 175
	lea	rcx, QWORD PTR wszBuf$[rsp]
	call	??0?$CHeapPtr@_WVCCRTAllocator@ATL@@@ATL@@QEAA@XZ ; ATL::CHeapPtr<wchar_t,ATL::CCRTAllocator>::CHeapPtr<wchar_t,ATL::CCRTAllocator>
; Line 176
	movsxd	rax, DWORD PTR chCount$[rsp]
	mov	rdx, rax
	lea	rcx, QWORD PTR wszBuf$[rsp]
	call	?Allocate@?$CHeapPtr@_WVCCRTAllocator@ATL@@@ATL@@QEAA_N_K@Z ; ATL::CHeapPtr<wchar_t,ATL::CCRTAllocator>::Allocate
	movzx	eax, al
	test	eax, eax
	jne	SHORT $LN8@TraceV
; Line 178
	lea	rcx, QWORD PTR wszBuf$[rsp]
	call	??1?$CHeapPtr@_WVCCRTAllocator@ATL@@@ATL@@QEAA@XZ
	jmp	$LN1@TraceV
$LN8@TraceV:
; Line 181
	lea	rcx, QWORD PTR wszBuf$[rsp]
	call	??B?$CHeapPtrBase@_WVCCRTAllocator@ATL@@@ATL@@QEBAPEA_WXZ ; ATL::CHeapPtrBase<wchar_t,ATL::CCRTAllocator>::operator wchar_t * __ptr64
	mov	ecx, 2
	imul	rcx, rcx, 0
	xor	edx, edx
	mov	WORD PTR [rax+rcx], dx
; Line 183
	movsxd	rax, DWORD PTR chCount$[rsp]
	mov	QWORD PTR tv145[rsp], rax
	lea	rcx, QWORD PTR wszBuf$[rsp]
	call	??B?$CHeapPtrBase@_WVCCRTAllocator@ATL@@@ATL@@QEBAPEA_WXZ ; ATL::CHeapPtrBase<wchar_t,ATL::CCRTAllocator>::operator wchar_t * __ptr64
	mov	rcx, QWORD PTR pwszMessage$[rsp]
	mov	QWORD PTR [rsp+32], rcx
	lea	r9, QWORD PTR wszCategory$[rsp]
	lea	r8, OFFSET FLAT:??_C@_1O@OAIPCDPO@?$AA?$CF?$AAl?$AAs?$AA?$CF?$AAl?$AAs?$AA?$AA@
	mov	rcx, QWORD PTR tv145[rsp]
	mov	rdx, rcx
	mov	rcx, rax
	call	swprintf_s
	cmp	eax, -1
	jne	SHORT $LN9@TraceV
; Line 185
	lea	rcx, QWORD PTR wszBuf$[rsp]
	call	??1?$CHeapPtr@_WVCCRTAllocator@ATL@@@ATL@@QEAA@XZ
	jmp	$LN1@TraceV
$LN9@TraceV:
; Line 188
	xor	eax, eax
	mov	WORD PTR fileName$[rsp], ax
	lea	rax, QWORD PTR fileName$[rsp+2]
	mov	rdi, rax
	xor	eax, eax
	mov	ecx, 518				; 00000206H
	rep stosb
; Line 192
	mov	r9, QWORD PTR pszFileName$[rsp]
	lea	r8, OFFSET FLAT:??_C@_17LGGGMOOB@?$AA?$CF?$AAh?$AAs?$AA?$AA@
	mov	edx, 260				; 00000104H
	lea	rcx, QWORD PTR fileName$[rsp]
	call	swprintf_s
	cmp	eax, -1
	jne	SHORT $LN10@TraceV
; Line 195
	lea	rcx, QWORD PTR wszBuf$[rsp]
	call	??1?$CHeapPtr@_WVCCRTAllocator@ATL@@@ATL@@QEAA@XZ
	jmp	SHORT $LN1@TraceV
$LN10@TraceV:
; Line 198
	lea	rcx, QWORD PTR wszBuf$[rsp]
	call	??B?$CHeapPtrBase@_WVCCRTAllocator@ATL@@@ATL@@QEBAPEA_WXZ ; ATL::CHeapPtrBase<wchar_t,ATL::CCRTAllocator>::operator wchar_t * __ptr64
	mov	QWORD PTR [rsp+40], rax
	lea	rax, OFFSET FLAT:??_C@_17CNPHIMPH@?$AA?$CF?$AAl?$AAs?$AA?$AA@
	mov	QWORD PTR [rsp+32], rax
	xor	r9d, r9d
	mov	r8d, DWORD PTR nLine$[rsp]
	lea	rdx, QWORD PTR fileName$[rsp]
	xor	ecx, ecx
	call	QWORD PTR __imp__CrtDbgReportW
; Line 199
	lea	rcx, QWORD PTR wszBuf$[rsp]
	call	??1?$CHeapPtr@_WVCCRTAllocator@ATL@@@ATL@@QEAA@XZ
$LN1@TraceV:
	mov	rcx, QWORD PTR __$ArrayPad$[rsp]
	xor	rcx, rsp
	call	__security_check_cookie
	add	rsp, 2688				; 00000a80H
	pop	rdi
	ret	0
?TraceV@CTrace@ATL@@CAXPEBDHIIPEB_W@Z ENDP		; ATL::CTrace::TraceV
_TEXT	ENDS
; Function compile flags: /Odtp
;	COMDAT ?GetCategoryName@CTrace@ATL@@CAPEA_WI@Z
_TEXT	SEGMENT
i$1 = 0
nCategory$ = 32
?GetCategoryName@CTrace@ATL@@CAPEA_WI@Z PROC		; ATL::CTrace::GetCategoryName, COMDAT
; File d:\visual studio\vc\atlmfc\include\atltrace.h
; Line 132
$LN7:
	mov	DWORD PTR [rsp+8], ecx
	sub	rsp, 24
; Line 133
	mov	DWORD PTR i$1[rsp], 0
	jmp	SHORT $LN4@GetCategor
$LN2@GetCategor:
	mov	eax, DWORD PTR i$1[rsp]
	inc	eax
	mov	DWORD PTR i$1[rsp], eax
$LN4@GetCategor:
	mov	eax, DWORD PTR ?m_nLastCategory@CTrace@ATL@@1IA ; ATL::CTrace::m_nLastCategory
	cmp	DWORD PTR i$1[rsp], eax
	jae	SHORT $LN3@GetCategor
; Line 135
	mov	eax, DWORD PTR i$1[rsp]
	imul	rax, rax, 260				; 00000104H
	lea	rcx, OFFSET FLAT:?m_nMap@CTrace@ATL@@1PAUCategoryMap@12@A ; ATL::CTrace::m_nMap
	mov	edx, DWORD PTR nCategory$[rsp]
	cmp	DWORD PTR [rcx+rax], edx
	jne	SHORT $LN5@GetCategor
; Line 137
	mov	eax, DWORD PTR i$1[rsp]
	imul	rax, rax, 260				; 00000104H
	lea	rcx, OFFSET FLAT:?m_nMap@CTrace@ATL@@1PAUCategoryMap@12@A ; ATL::CTrace::m_nMap
	lea	rax, QWORD PTR [rcx+rax+4]
	jmp	SHORT $LN1@GetCategor
$LN5@GetCategor:
; Line 139
	jmp	SHORT $LN2@GetCategor
$LN3@GetCategor:
; Line 141
	xor	eax, eax
$LN1@GetCategor:
; Line 142
	add	rsp, 24
	ret	0
?GetCategoryName@CTrace@ATL@@CAPEA_WI@Z ENDP		; ATL::CTrace::GetCategoryName
_TEXT	ENDS
; Function compile flags: /Odtp
;	COMDAT ??__EatlTraceISAPI@ATL@@YAXXZ
text$di	SEGMENT
??__EatlTraceISAPI@ATL@@YAXXZ PROC			; ATL::`dynamic initializer for 'atlTraceISAPI'', COMDAT
; File d:\visual studio\vc\atlmfc\include\atltrace.h
; Line 119
	sub	rsp, 40					; 00000028H
	lea	rdx, OFFSET FLAT:$SG269157
	lea	rcx, OFFSET FLAT:?atlTraceISAPI@ATL@@3V?$CTraceCategoryEx@$0EAAAAA@$0A@@1@A ; ATL::atlTraceISAPI
	call	??0?$CTraceCategoryEx@$0EAAAAA@$0A@@ATL@@QEAA@PEB_W@Z ; ATL::CTraceCategoryEx<4194304,0>::CTraceCategoryEx<4194304,0>
	add	rsp, 40					; 00000028H
	ret	0
??__EatlTraceISAPI@ATL@@YAXXZ ENDP			; ATL::`dynamic initializer for 'atlTraceISAPI''
text$di	ENDS
; Function compile flags: /Odtp
;	COMDAT ??0?$CTraceCategoryEx@$0EAAAAA@$0A@@ATL@@QEAA@PEB_W@Z
_TEXT	SEGMENT
this$ = 48
pszCategoryName$ = 56
??0?$CTraceCategoryEx@$0EAAAAA@$0A@@ATL@@QEAA@PEB_W@Z PROC ; ATL::CTraceCategoryEx<4194304,0>::CTraceCategoryEx<4194304,0>, COMDAT
; File d:\visual studio\vc\atlmfc\include\atltrace.h
; Line 480
$LN3:
	mov	QWORD PTR [rsp+16], rdx
	mov	QWORD PTR [rsp+8], rcx
	sub	rsp, 40					; 00000028H
; Line 481
	mov	edx, 4194304				; 00400000H
	mov	rcx, QWORD PTR pszCategoryName$[rsp]
	call	?RegisterCategory@CTrace@ATL@@SAXPEB_WI@Z ; ATL::CTrace::RegisterCategory
; Line 482
	mov	rax, QWORD PTR this$[rsp]
	add	rsp, 40					; 00000028H
	ret	0
??0?$CTraceCategoryEx@$0EAAAAA@$0A@@ATL@@QEAA@PEB_W@Z ENDP ; ATL::CTraceCategoryEx<4194304,0>::CTraceCategoryEx<4194304,0>
_TEXT	ENDS
; Function compile flags: /Odtp
;	COMDAT ??__EatlTraceSync@ATL@@YAXXZ
text$di	SEGMENT
??__EatlTraceSync@ATL@@YAXXZ PROC			; ATL::`dynamic initializer for 'atlTraceSync'', COMDAT
; File d:\visual studio\vc\atlmfc\include\atltrace.h
; Line 118
	sub	rsp, 40					; 00000028H
	lea	rdx, OFFSET FLAT:$SG269108
	lea	rcx, OFFSET FLAT:?atlTraceSync@ATL@@3V?$CTraceCategoryEx@$0CAAAAA@$0A@@1@A ; ATL::atlTraceSync
	call	??0?$CTraceCategoryEx@$0CAAAAA@$0A@@ATL@@QEAA@PEB_W@Z ; ATL::CTraceCategoryEx<2097152,0>::CTraceCategoryEx<2097152,0>
	add	rsp, 40					; 00000028H
	ret	0
??__EatlTraceSync@ATL@@YAXXZ ENDP			; ATL::`dynamic initializer for 'atlTraceSync''
text$di	ENDS
; Function compile flags: /Odtp
;	COMDAT ??0?$CTraceCategoryEx@$0CAAAAA@$0A@@ATL@@QEAA@PEB_W@Z
_TEXT	SEGMENT
this$ = 48
pszCategoryName$ = 56
??0?$CTraceCategoryEx@$0CAAAAA@$0A@@ATL@@QEAA@PEB_W@Z PROC ; ATL::CTraceCategoryEx<2097152,0>::CTraceCategoryEx<2097152,0>, COMDAT
; File d:\visual studio\vc\atlmfc\include\atltrace.h
; Line 480
$LN3:
	mov	QWORD PTR [rsp+16], rdx
	mov	QWORD PTR [rsp+8], rcx
	sub	rsp, 40					; 00000028H
; Line 481
	mov	edx, 2097152				; 00200000H
	mov	rcx, QWORD PTR pszCategoryName$[rsp]
	call	?RegisterCategory@CTrace@ATL@@SAXPEB_WI@Z ; ATL::CTrace::RegisterCategory
; Line 482
	mov	rax, QWORD PTR this$[rsp]
	add	rsp, 40					; 00000028H
	ret	0
??0?$CTraceCategoryEx@$0CAAAAA@$0A@@ATL@@QEAA@PEB_W@Z ENDP ; ATL::CTraceCategoryEx<2097152,0>::CTraceCategoryEx<2097152,0>
_TEXT	ENDS
; Function compile flags: /Odtp
;	COMDAT ??__EatlTraceSecurity@ATL@@YAXXZ
text$di	SEGMENT
??__EatlTraceSecurity@ATL@@YAXXZ PROC			; ATL::`dynamic initializer for 'atlTraceSecurity'', COMDAT
; File d:\visual studio\vc\atlmfc\include\atltrace.h
; Line 117
	sub	rsp, 40					; 00000028H
	lea	rdx, OFFSET FLAT:$SG269059
	lea	rcx, OFFSET FLAT:?atlTraceSecurity@ATL@@3V?$CTraceCategoryEx@$0BAAAAA@$0A@@1@A ; ATL::atlTraceSecurity
	call	??0?$CTraceCategoryEx@$0BAAAAA@$0A@@ATL@@QEAA@PEB_W@Z ; ATL::CTraceCategoryEx<1048576,0>::CTraceCategoryEx<1048576,0>
	add	rsp, 40					; 00000028H
	ret	0
??__EatlTraceSecurity@ATL@@YAXXZ ENDP			; ATL::`dynamic initializer for 'atlTraceSecurity''
text$di	ENDS
; Function compile flags: /Odtp
;	COMDAT ??0?$CTraceCategoryEx@$0BAAAAA@$0A@@ATL@@QEAA@PEB_W@Z
_TEXT	SEGMENT
this$ = 48
pszCategoryName$ = 56
??0?$CTraceCategoryEx@$0BAAAAA@$0A@@ATL@@QEAA@PEB_W@Z PROC ; ATL::CTraceCategoryEx<1048576,0>::CTraceCategoryEx<1048576,0>, COMDAT
; File d:\visual studio\vc\atlmfc\include\atltrace.h
; Line 480
$LN3:
	mov	QWORD PTR [rsp+16], rdx
	mov	QWORD PTR [rsp+8], rcx
	sub	rsp, 40					; 00000028H
; Line 481
	mov	edx, 1048576				; 00100000H
	mov	rcx, QWORD PTR pszCategoryName$[rsp]
	call	?RegisterCategory@CTrace@ATL@@SAXPEB_WI@Z ; ATL::CTrace::RegisterCategory
; Line 482
	mov	rax, QWORD PTR this$[rsp]
	add	rsp, 40					; 00000028H
	ret	0
??0?$CTraceCategoryEx@$0BAAAAA@$0A@@ATL@@QEAA@PEB_W@Z ENDP ; ATL::CTraceCategoryEx<1048576,0>::CTraceCategoryEx<1048576,0>
_TEXT	ENDS
; Function compile flags: /Odtp
;	COMDAT ??__EatlTraceUtil@ATL@@YAXXZ
text$di	SEGMENT
??__EatlTraceUtil@ATL@@YAXXZ PROC			; ATL::`dynamic initializer for 'atlTraceUtil'', COMDAT
; File d:\visual studio\vc\atlmfc\include\atltrace.h
; Line 116
	sub	rsp, 40					; 00000028H
	lea	rdx, OFFSET FLAT:$SG269010
	lea	rcx, OFFSET FLAT:?atlTraceUtil@ATL@@3V?$CTraceCategoryEx@$0IAAAA@$0A@@1@A ; ATL::atlTraceUtil
	call	??0?$CTraceCategoryEx@$0IAAAA@$0A@@ATL@@QEAA@PEB_W@Z ; ATL::CTraceCategoryEx<524288,0>::CTraceCategoryEx<524288,0>
	add	rsp, 40					; 00000028H
	ret	0
??__EatlTraceUtil@ATL@@YAXXZ ENDP			; ATL::`dynamic initializer for 'atlTraceUtil''
text$di	ENDS
; Function compile flags: /Odtp
;	COMDAT ??__EatlTraceMap@ATL@@YAXXZ
text$di	SEGMENT
??__EatlTraceMap@ATL@@YAXXZ PROC			; ATL::`dynamic initializer for 'atlTraceMap'', COMDAT
; File d:\visual studio\vc\atlmfc\include\atltrace.h
; Line 115
	sub	rsp, 40					; 00000028H
	lea	rdx, OFFSET FLAT:$SG269005
	lea	rcx, OFFSET FLAT:?atlTraceMap@ATL@@3V?$CTraceCategoryEx@$0EAAAA@$0A@@1@A ; ATL::atlTraceMap
	call	??0?$CTraceCategoryEx@$0EAAAA@$0A@@ATL@@QEAA@PEB_W@Z ; ATL::CTraceCategoryEx<262144,0>::CTraceCategoryEx<262144,0>
	add	rsp, 40					; 00000028H
	ret	0
??__EatlTraceMap@ATL@@YAXXZ ENDP			; ATL::`dynamic initializer for 'atlTraceMap''
text$di	ENDS
; Function compile flags: /Odtp
;	COMDAT ??0?$CTraceCategoryEx@$0EAAAA@$0A@@ATL@@QEAA@PEB_W@Z
_TEXT	SEGMENT
this$ = 48
pszCategoryName$ = 56
??0?$CTraceCategoryEx@$0EAAAA@$0A@@ATL@@QEAA@PEB_W@Z PROC ; ATL::CTraceCategoryEx<262144,0>::CTraceCategoryEx<262144,0>, COMDAT
; File d:\visual studio\vc\atlmfc\include\atltrace.h
; Line 480
$LN3:
	mov	QWORD PTR [rsp+16], rdx
	mov	QWORD PTR [rsp+8], rcx
	sub	rsp, 40					; 00000028H
; Line 481
	mov	edx, 262144				; 00040000H
	mov	rcx, QWORD PTR pszCategoryName$[rsp]
	call	?RegisterCategory@CTrace@ATL@@SAXPEB_WI@Z ; ATL::CTrace::RegisterCategory
; Line 482
	mov	rax, QWORD PTR this$[rsp]
	add	rsp, 40					; 00000028H
	ret	0
??0?$CTraceCategoryEx@$0EAAAA@$0A@@ATL@@QEAA@PEB_W@Z ENDP ; ATL::CTraceCategoryEx<262144,0>::CTraceCategoryEx<262144,0>
_TEXT	ENDS
; Function compile flags: /Odtp
;	COMDAT ??__EatlTraceString@ATL@@YAXXZ
text$di	SEGMENT
??__EatlTraceString@ATL@@YAXXZ PROC			; ATL::`dynamic initializer for 'atlTraceString'', COMDAT
; File d:\visual studio\vc\atlmfc\include\atltrace.h
; Line 114
	sub	rsp, 40					; 00000028H
	lea	rdx, OFFSET FLAT:$SG268956
	lea	rcx, OFFSET FLAT:?atlTraceString@ATL@@3V?$CTraceCategoryEx@$0CAAAA@$0A@@1@A ; ATL::atlTraceString
	call	??0?$CTraceCategoryEx@$0CAAAA@$0A@@ATL@@QEAA@PEB_W@Z ; ATL::CTraceCategoryEx<131072,0>::CTraceCategoryEx<131072,0>
	add	rsp, 40					; 00000028H
	ret	0
??__EatlTraceString@ATL@@YAXXZ ENDP			; ATL::`dynamic initializer for 'atlTraceString''
text$di	ENDS
; Function compile flags: /Odtp
;	COMDAT ??0?$CTraceCategoryEx@$0CAAAA@$0A@@ATL@@QEAA@PEB_W@Z
_TEXT	SEGMENT
this$ = 48
pszCategoryName$ = 56
??0?$CTraceCategoryEx@$0CAAAA@$0A@@ATL@@QEAA@PEB_W@Z PROC ; ATL::CTraceCategoryEx<131072,0>::CTraceCategoryEx<131072,0>, COMDAT
; File d:\visual studio\vc\atlmfc\include\atltrace.h
; Line 480
$LN3:
	mov	QWORD PTR [rsp+16], rdx
	mov	QWORD PTR [rsp+8], rcx
	sub	rsp, 40					; 00000028H
; Line 481
	mov	edx, 131072				; 00020000H
	mov	rcx, QWORD PTR pszCategoryName$[rsp]
	call	?RegisterCategory@CTrace@ATL@@SAXPEB_WI@Z ; ATL::CTrace::RegisterCategory
; Line 482
	mov	rax, QWORD PTR this$[rsp]
	add	rsp, 40					; 00000028H
	ret	0
??0?$CTraceCategoryEx@$0CAAAA@$0A@@ATL@@QEAA@PEB_W@Z ENDP ; ATL::CTraceCategoryEx<131072,0>::CTraceCategoryEx<131072,0>
_TEXT	ENDS
; Function compile flags: /Odtp
;	COMDAT ??__EatlTraceStencil@ATL@@YAXXZ
text$di	SEGMENT
??__EatlTraceStencil@ATL@@YAXXZ PROC			; ATL::`dynamic initializer for 'atlTraceStencil'', COMDAT
; File d:\visual studio\vc\atlmfc\include\atltrace.h
; Line 113
	sub	rsp, 40					; 00000028H
	lea	rdx, OFFSET FLAT:$SG268907
	lea	rcx, OFFSET FLAT:?atlTraceStencil@ATL@@3V?$CTraceCategoryEx@$0BAAAA@$0A@@1@A ; ATL::atlTraceStencil
	call	??0?$CTraceCategoryEx@$0BAAAA@$0A@@ATL@@QEAA@PEB_W@Z ; ATL::CTraceCategoryEx<65536,0>::CTraceCategoryEx<65536,0>
	add	rsp, 40					; 00000028H
	ret	0
??__EatlTraceStencil@ATL@@YAXXZ ENDP			; ATL::`dynamic initializer for 'atlTraceStencil''
text$di	ENDS
; Function compile flags: /Odtp
;	COMDAT ??0?$CTraceCategoryEx@$0BAAAA@$0A@@ATL@@QEAA@PEB_W@Z
_TEXT	SEGMENT
this$ = 48
pszCategoryName$ = 56
??0?$CTraceCategoryEx@$0BAAAA@$0A@@ATL@@QEAA@PEB_W@Z PROC ; ATL::CTraceCategoryEx<65536,0>::CTraceCategoryEx<65536,0>, COMDAT
; File d:\visual studio\vc\atlmfc\include\atltrace.h
; Line 480
$LN3:
	mov	QWORD PTR [rsp+16], rdx
	mov	QWORD PTR [rsp+8], rcx
	sub	rsp, 40					; 00000028H
; Line 481
	mov	edx, 65536				; 00010000H
	mov	rcx, QWORD PTR pszCategoryName$[rsp]
	call	?RegisterCategory@CTrace@ATL@@SAXPEB_WI@Z ; ATL::CTrace::RegisterCategory
; Line 482
	mov	rax, QWORD PTR this$[rsp]
	add	rsp, 40					; 00000028H
	ret	0
??0?$CTraceCategoryEx@$0BAAAA@$0A@@ATL@@QEAA@PEB_W@Z ENDP ; ATL::CTraceCategoryEx<65536,0>::CTraceCategoryEx<65536,0>
_TEXT	ENDS
; Function compile flags: /Odtp
;	COMDAT ??__EatlTraceCache@ATL@@YAXXZ
text$di	SEGMENT
??__EatlTraceCache@ATL@@YAXXZ PROC			; ATL::`dynamic initializer for 'atlTraceCache'', COMDAT
; File d:\visual studio\vc\atlmfc\include\atltrace.h
; Line 112
	sub	rsp, 40					; 00000028H
	lea	rdx, OFFSET FLAT:$SG268858
	lea	rcx, OFFSET FLAT:?atlTraceCache@ATL@@3V?$CTraceCategoryEx@$0IAAA@$0A@@1@A ; ATL::atlTraceCache
	call	??0?$CTraceCategoryEx@$0IAAA@$0A@@ATL@@QEAA@PEB_W@Z ; ATL::CTraceCategoryEx<32768,0>::CTraceCategoryEx<32768,0>
	add	rsp, 40					; 00000028H
	ret	0
??__EatlTraceCache@ATL@@YAXXZ ENDP			; ATL::`dynamic initializer for 'atlTraceCache''
text$di	ENDS
; Function compile flags: /Odtp
;	COMDAT ??0?$CTraceCategoryEx@$0IAAA@$0A@@ATL@@QEAA@PEB_W@Z
_TEXT	SEGMENT
this$ = 48
pszCategoryName$ = 56
??0?$CTraceCategoryEx@$0IAAA@$0A@@ATL@@QEAA@PEB_W@Z PROC ; ATL::CTraceCategoryEx<32768,0>::CTraceCategoryEx<32768,0>, COMDAT
; File d:\visual studio\vc\atlmfc\include\atltrace.h
; Line 480
$LN3:
	mov	QWORD PTR [rsp+16], rdx
	mov	QWORD PTR [rsp+8], rcx
	sub	rsp, 40					; 00000028H
; Line 481
	mov	edx, 32768				; 00008000H
	mov	rcx, QWORD PTR pszCategoryName$[rsp]
	call	?RegisterCategory@CTrace@ATL@@SAXPEB_WI@Z ; ATL::CTrace::RegisterCategory
; Line 482
	mov	rax, QWORD PTR this$[rsp]
	add	rsp, 40					; 00000028H
	ret	0
??0?$CTraceCategoryEx@$0IAAA@$0A@@ATL@@QEAA@PEB_W@Z ENDP ; ATL::CTraceCategoryEx<32768,0>::CTraceCategoryEx<32768,0>
_TEXT	ENDS
; Function compile flags: /Odtp
;	COMDAT ??__EatlTraceTime@ATL@@YAXXZ
text$di	SEGMENT
??__EatlTraceTime@ATL@@YAXXZ PROC			; ATL::`dynamic initializer for 'atlTraceTime'', COMDAT
; File d:\visual studio\vc\atlmfc\include\atltrace.h
; Line 111
	sub	rsp, 40					; 00000028H
	lea	rdx, OFFSET FLAT:$SG268809
	lea	rcx, OFFSET FLAT:?atlTraceTime@ATL@@3V?$CTraceCategoryEx@$0EAAA@$0A@@1@A ; ATL::atlTraceTime
	call	??0?$CTraceCategoryEx@$0EAAA@$0A@@ATL@@QEAA@PEB_W@Z ; ATL::CTraceCategoryEx<16384,0>::CTraceCategoryEx<16384,0>
	add	rsp, 40					; 00000028H
	ret	0
??__EatlTraceTime@ATL@@YAXXZ ENDP			; ATL::`dynamic initializer for 'atlTraceTime''
text$di	ENDS
; Function compile flags: /Odtp
;	COMDAT ??0?$CTraceCategoryEx@$0EAAA@$0A@@ATL@@QEAA@PEB_W@Z
_TEXT	SEGMENT
this$ = 48
pszCategoryName$ = 56
??0?$CTraceCategoryEx@$0EAAA@$0A@@ATL@@QEAA@PEB_W@Z PROC ; ATL::CTraceCategoryEx<16384,0>::CTraceCategoryEx<16384,0>, COMDAT
; File d:\visual studio\vc\atlmfc\include\atltrace.h
; Line 480
$LN3:
	mov	QWORD PTR [rsp+16], rdx
	mov	QWORD PTR [rsp+8], rcx
	sub	rsp, 40					; 00000028H
; Line 481
	mov	edx, 16384				; 00004000H
	mov	rcx, QWORD PTR pszCategoryName$[rsp]
	call	?RegisterCategory@CTrace@ATL@@SAXPEB_WI@Z ; ATL::CTrace::RegisterCategory
; Line 482
	mov	rax, QWORD PTR this$[rsp]
	add	rsp, 40					; 00000028H
	ret	0
??0?$CTraceCategoryEx@$0EAAA@$0A@@ATL@@QEAA@PEB_W@Z ENDP ; ATL::CTraceCategoryEx<16384,0>::CTraceCategoryEx<16384,0>
_TEXT	ENDS
; Function compile flags: /Odtp
;	COMDAT ??__EatlTraceException@ATL@@YAXXZ
text$di	SEGMENT
??__EatlTraceException@ATL@@YAXXZ PROC			; ATL::`dynamic initializer for 'atlTraceException'', COMDAT
; File d:\visual studio\vc\atlmfc\include\atltrace.h
; Line 110
	sub	rsp, 40					; 00000028H
	lea	rdx, OFFSET FLAT:$SG268760
	lea	rcx, OFFSET FLAT:?atlTraceException@ATL@@3V?$CTraceCategoryEx@$0CAAA@$0A@@1@A ; ATL::atlTraceException
	call	??0?$CTraceCategoryEx@$0CAAA@$0A@@ATL@@QEAA@PEB_W@Z ; ATL::CTraceCategoryEx<8192,0>::CTraceCategoryEx<8192,0>
	add	rsp, 40					; 00000028H
	ret	0
??__EatlTraceException@ATL@@YAXXZ ENDP			; ATL::`dynamic initializer for 'atlTraceException''
text$di	ENDS
; Function compile flags: /Odtp
;	COMDAT ??0?$CTraceCategoryEx@$0CAAA@$0A@@ATL@@QEAA@PEB_W@Z
_TEXT	SEGMENT
this$ = 48
pszCategoryName$ = 56
??0?$CTraceCategoryEx@$0CAAA@$0A@@ATL@@QEAA@PEB_W@Z PROC ; ATL::CTraceCategoryEx<8192,0>::CTraceCategoryEx<8192,0>, COMDAT
; File d:\visual studio\vc\atlmfc\include\atltrace.h
; Line 480
$LN3:
	mov	QWORD PTR [rsp+16], rdx
	mov	QWORD PTR [rsp+8], rcx
	sub	rsp, 40					; 00000028H
; Line 481
	mov	edx, 8192				; 00002000H
	mov	rcx, QWORD PTR pszCategoryName$[rsp]
	call	?RegisterCategory@CTrace@ATL@@SAXPEB_WI@Z ; ATL::CTrace::RegisterCategory
; Line 482
	mov	rax, QWORD PTR this$[rsp]
	add	rsp, 40					; 00000028H
	ret	0
??0?$CTraceCategoryEx@$0CAAA@$0A@@ATL@@QEAA@PEB_W@Z ENDP ; ATL::CTraceCategoryEx<8192,0>::CTraceCategoryEx<8192,0>
_TEXT	ENDS
; Function compile flags: /Odtp
;	COMDAT ??__EatlTraceAllocation@ATL@@YAXXZ
text$di	SEGMENT
??__EatlTraceAllocation@ATL@@YAXXZ PROC			; ATL::`dynamic initializer for 'atlTraceAllocation'', COMDAT
; File d:\visual studio\vc\atlmfc\include\atltrace.h
; Line 109
	sub	rsp, 40					; 00000028H
	lea	rdx, OFFSET FLAT:$SG268711
	lea	rcx, OFFSET FLAT:?atlTraceAllocation@ATL@@3V?$CTraceCategoryEx@$0BAAA@$0A@@1@A ; ATL::atlTraceAllocation
	call	??0?$CTraceCategoryEx@$0BAAA@$0A@@ATL@@QEAA@PEB_W@Z ; ATL::CTraceCategoryEx<4096,0>::CTraceCategoryEx<4096,0>
	add	rsp, 40					; 00000028H
	ret	0
??__EatlTraceAllocation@ATL@@YAXXZ ENDP			; ATL::`dynamic initializer for 'atlTraceAllocation''
text$di	ENDS
; Function compile flags: /Odtp
;	COMDAT ??0?$CTraceCategoryEx@$0BAAA@$0A@@ATL@@QEAA@PEB_W@Z
_TEXT	SEGMENT
this$ = 48
pszCategoryName$ = 56
??0?$CTraceCategoryEx@$0BAAA@$0A@@ATL@@QEAA@PEB_W@Z PROC ; ATL::CTraceCategoryEx<4096,0>::CTraceCategoryEx<4096,0>, COMDAT
; File d:\visual studio\vc\atlmfc\include\atltrace.h
; Line 480
$LN3:
	mov	QWORD PTR [rsp+16], rdx
	mov	QWORD PTR [rsp+8], rcx
	sub	rsp, 40					; 00000028H
; Line 481
	mov	edx, 4096				; 00001000H
	mov	rcx, QWORD PTR pszCategoryName$[rsp]
	call	?RegisterCategory@CTrace@ATL@@SAXPEB_WI@Z ; ATL::CTrace::RegisterCategory
; Line 482
	mov	rax, QWORD PTR this$[rsp]
	add	rsp, 40					; 00000028H
	ret	0
??0?$CTraceCategoryEx@$0BAAA@$0A@@ATL@@QEAA@PEB_W@Z ENDP ; ATL::CTraceCategoryEx<4096,0>::CTraceCategoryEx<4096,0>
_TEXT	ENDS
; Function compile flags: /Odtp
;	COMDAT ??__EatlTraceNotImpl@ATL@@YAXXZ
text$di	SEGMENT
??__EatlTraceNotImpl@ATL@@YAXXZ PROC			; ATL::`dynamic initializer for 'atlTraceNotImpl'', COMDAT
; File d:\visual studio\vc\atlmfc\include\atltrace.h
; Line 108
	sub	rsp, 40					; 00000028H
	lea	rdx, OFFSET FLAT:$SG268662
	lea	rcx, OFFSET FLAT:?atlTraceNotImpl@ATL@@3V?$CTraceCategoryEx@$0IAA@$0A@@1@A ; ATL::atlTraceNotImpl
	call	??0?$CTraceCategoryEx@$0IAA@$0A@@ATL@@QEAA@PEB_W@Z ; ATL::CTraceCategoryEx<2048,0>::CTraceCategoryEx<2048,0>
	add	rsp, 40					; 00000028H
	ret	0
??__EatlTraceNotImpl@ATL@@YAXXZ ENDP			; ATL::`dynamic initializer for 'atlTraceNotImpl''
text$di	ENDS
; Function compile flags: /Odtp
;	COMDAT ??0?$CTraceCategoryEx@$0IAA@$0A@@ATL@@QEAA@PEB_W@Z
_TEXT	SEGMENT
this$ = 48
pszCategoryName$ = 56
??0?$CTraceCategoryEx@$0IAA@$0A@@ATL@@QEAA@PEB_W@Z PROC	; ATL::CTraceCategoryEx<2048,0>::CTraceCategoryEx<2048,0>, COMDAT
; File d:\visual studio\vc\atlmfc\include\atltrace.h
; Line 480
$LN3:
	mov	QWORD PTR [rsp+16], rdx
	mov	QWORD PTR [rsp+8], rcx
	sub	rsp, 40					; 00000028H
; Line 481
	mov	edx, 2048				; 00000800H
	mov	rcx, QWORD PTR pszCategoryName$[rsp]
	call	?RegisterCategory@CTrace@ATL@@SAXPEB_WI@Z ; ATL::CTrace::RegisterCategory
; Line 482
	mov	rax, QWORD PTR this$[rsp]
	add	rsp, 40					; 00000028H
	ret	0
??0?$CTraceCategoryEx@$0IAA@$0A@@ATL@@QEAA@PEB_W@Z ENDP	; ATL::CTraceCategoryEx<2048,0>::CTraceCategoryEx<2048,0>
_TEXT	ENDS
; Function compile flags: /Odtp
;	COMDAT ??__EatlTraceSnapin@ATL@@YAXXZ
text$di	SEGMENT
